 bufferutil

 Timestamp is 587d12da (Mon Jan 16 13:37:14 2017)

 Preferred load address is 10000000

 Start         Length     Name                   Class
 0001:00000000 00000011H .text$di                CODE
 0001:00000020 0000f43eH .text$mn                CODE
 0001:0000f45e 00000000H .text$x                 CODE
 0001:0000f460 00000000H .text$yd                CODE
 0002:00000000 00000104H .idata$5                DATA
 0002:00000104 00000004H .CRT$XCA                DATA
 0002:00000108 0000000cH .CRT$XCU                DATA
 0002:00000114 00000004H .CRT$XCZ                DATA
 0002:00000118 00000004H .CRT$XIA                DATA
 0002:0000011c 00000010H .CRT$XIC                DATA
 0002:0000012c 00000004H .CRT$XIZ                DATA
 0002:00000130 00000004H .CRT$XPA                DATA
 0002:00000134 00000008H .CRT$XPX                DATA
 0002:0000013c 00000004H .CRT$XPXA               DATA
 0002:00000140 00000004H .CRT$XPZ                DATA
 0002:00000144 00000004H .CRT$XTA                DATA
 0002:00000148 00000004H .CRT$XTZ                DATA
 0002:00000150 000058b0H .rdata                  DATA
 0002:00005a00 000000acH .rdata$debug            DATA
 0002:00005aac 000000dcH .rdata$r                DATA
 0002:00005b90 0000000cH .rdata$sxdata           DATA
 0002:00005b9c 00000004H .rtc$IAA                DATA
 0002:00005ba0 00000004H .rtc$IZZ                DATA
 0002:00005ba4 00000004H .rtc$TAA                DATA
 0002:00005ba8 00000004H .rtc$TZZ                DATA
 0002:00005bb0 0000040cH .xdata$x                DATA
 0002:00005fbc 00000020H .didat$2                DATA
 0002:00005fdc 00000020H .didat$3                DATA
 0002:00005ffc 00000124H .didat$4                DATA
 0002:00006120 00001394H .didat$6                DATA
 0002:000074b4 00000124H .didat$7                DATA
 0002:000075e0 00003987H .edata                  DATA
 0002:0000af68 00000014H .idata$2                DATA
 0002:0000af7c 00000014H .idata$3                DATA
 0002:0000af90 00000104H .idata$4                DATA
 0002:0000b094 000004a8H .idata$6                DATA
 0003:00000000 00001260H .data                   DATA
 0003:00001260 00000050H .data$r                 DATA
 0003:000012b0 00000124H .didat$5                DATA
 0003:000013e0 00001ec0H .bss                    DATA
 0004:00000000 00000058H .rsrc$01                DATA
 0004:00000060 00000180H .rsrc$02                DATA

  Address         Publics by Value              Rva+Base       Lib:Object

 0000:00000000       __except_list              00000000     <absolute>
 0000:00000000       ___guard_fids_table        00000000     <absolute>
 0000:00000000       ___guard_fids_count        00000000     <absolute>
 0000:00000000       ___guard_flags             00000000     <absolute>
 0000:00000003       ___safe_se_handler_count   00000003     <absolute>
 0000:00000000       ___ImageBase               10000000     <linker-defined>
 0001:00000020       ?GetIsolate@HandleScope@v8@@QBEPAVIsolate@2@XZ 10001020 f i bufferutil.obj
 0001:00000020       ??DValue@String@v8@@QBEPBGXZ 10001020 f i bufferutil.obj
 0001:00000020       ?Data@Contents@ArrayBuffer@v8@@QBEPAXXZ 10001020 f i bufferutil.obj
 0001:00000020       ??DUtf8Value@String@v8@@QBEPBDXZ 10001020 f i bufferutil.obj
 0001:00000020       ?Data@Contents@SharedArrayBuffer@v8@@QBEPAXXZ 10001020 f i bufferutil.obj
 0001:00000020       ?object_type@HeapObjectStatistics@v8@@QAEPBDXZ 10001020 f i bufferutil.obj
 0001:00000020       ??DValue@String@v8@@QAEPAGXZ 10001020 f i bufferutil.obj
 0001:00000020       ??DUtf8Value@String@v8@@QAEPADXZ 10001020 f i bufferutil.obj
 0001:00000020       ?max_semi_space_size@ResourceConstraints@v8@@QBEHXZ 10001020 f i bufferutil.obj
 0001:00000020       ?space_name@HeapSpaceStatistics@v8@@QAEPBDXZ 10001020 f i bufferutil.obj
 0001:00000020       ?impl@StreamedSource@ScriptCompiler@v8@@QBEPAU1internal@3@XZ 10001020 f i bufferutil.obj
 0001:00000020       ?total_heap_size@HeapStatistics@v8@@QAEIXZ 10001020 f i bufferutil.obj
 0001:00000030       ??0HandleScope@v8@@IAE@XZ  10001030 f i bufferutil.obj
 0001:00000040       ??1EscapableHandleScope@v8@@QAE@XZ 10001040 f i bufferutil.obj
 0001:00000050       ??4Uint32@v8@@QAEAAV01@ABV01@@Z 10001050 f i bufferutil.obj
 0001:00000050       ??4Value@v8@@QAEAAV01@ABV01@@Z 10001050 f i bufferutil.obj
 0001:00000050       ??4Set@v8@@QAEAAV01@ABV01@@Z 10001050 f i bufferutil.obj
 0001:00000050       ??4Float64Array@v8@@QAEAAV01@ABV01@@Z 10001050 f i bufferutil.obj
 0001:00000050       ??4Date@v8@@QAEAAV01@ABV01@@Z 10001050 f i bufferutil.obj
 0001:00000050       ??4StackTrace@v8@@QAEAAV01@ABV01@@Z 10001050 f i bufferutil.obj
 0001:00000050       ??4ExternalResourceVisitor@v8@@QAEAAV01@ABV01@@Z 10001050 f i bufferutil.obj
 0001:00000050       ??4ObjectTemplate@v8@@QAEAAV01@ABV01@@Z 10001050 f i bufferutil.obj
 0001:00000050       ??4NativeWeakMap@v8@@QAEAAV01@ABV01@@Z 10001050 f i bufferutil.obj
 0001:00000050       ??4Template@v8@@QAEAAV01@ABV01@@Z 10001050 f i bufferutil.obj
 0001:00000050       ??4Float32Array@v8@@QAEAAV01@ABV01@@Z 10001050 f i bufferutil.obj
 0001:00000050       ??4JSON@v8@@QAEAAV01@ABV01@@Z 10001050 f i bufferutil.obj
 0001:00000050       ??4Uint16Array@v8@@QAEAAV01@ABV01@@Z 10001050 f i bufferutil.obj
 0001:00000050       ??4Number@v8@@QAEAAV01@ABV01@@Z 10001050 f i bufferutil.obj
 0001:00000050       ??4Primitive@v8@@QAEAAV01@ABV01@@Z 10001050 f i bufferutil.obj
 0001:00000050       ??4ArrayBuffer@v8@@QAEAAV01@ABV01@@Z 10001050 f i bufferutil.obj
 0001:00000050       ??4Allocator@ArrayBuffer@v8@@QAEAAV012@ABV012@@Z 10001050 f i bufferutil.obj
 0001:00000050       ??4Object@v8@@QAEAAV01@ABV01@@Z 10001050 f i bufferutil.obj
 0001:00000050       ??4SharedArrayBuffer@v8@@QAEAAV01@ABV01@@Z 10001050 f i bufferutil.obj
 0001:00000050       ??4ArrayBufferView@v8@@QAEAAV01@ABV01@@Z 10001050 f i bufferutil.obj
 0001:00000050       ??4Context@v8@@QAEAAV01@ABV01@@Z 10001050 f i bufferutil.obj
 0001:00000050       ??4Int8Array@v8@@QAEAAV01@ABV01@@Z 10001050 f i bufferutil.obj
 0001:00000050       ??4Data@v8@@QAEAAV01@ABV01@@Z 10001050 f i bufferutil.obj
 0001:00000050       ??4SymbolObject@v8@@QAEAAV01@ABV01@@Z 10001050 f i bufferutil.obj
 0001:00000050       ??4TypeSwitch@v8@@QAEAAV01@ABV01@@Z 10001050 f i bufferutil.obj
 0001:00000050       ??4BooleanObject@v8@@QAEAAV01@ABV01@@Z 10001050 f i bufferutil.obj
 0001:00000050       ??4Message@v8@@QAEAAV01@ABV01@@Z 10001050 f i bufferutil.obj
 0001:00000050       ??4FunctionTemplate@v8@@QAEAAV01@ABV01@@Z 10001050 f i bufferutil.obj
 0001:00000050       ??4Exception@v8@@QAEAAV01@ABV01@@Z 10001050 f i bufferutil.obj
 0001:00000050       ??4String@v8@@QAEAAV01@ABV01@@Z 10001050 f i bufferutil.obj
 0001:00000050       ??4StringObject@v8@@QAEAAV01@ABV01@@Z 10001050 f i bufferutil.obj
 0001:00000050       ??4Symbol@v8@@QAEAAV01@ABV01@@Z 10001050 f i bufferutil.obj
 0001:00000050       ??4UnboundScript@v8@@QAEAAV01@ABV01@@Z 10001050 f i bufferutil.obj
 0001:00000050       ??4PersistentHandleVisitor@v8@@QAEAAV01@ABV01@@Z 10001050 f i bufferutil.obj
 0001:00000050       ??4Map@v8@@QAEAAV01@ABV01@@Z 10001050 f i bufferutil.obj
 0001:00000050       ??4ExternalSourceStream@ScriptCompiler@v8@@QAEAAV012@ABV012@@Z 10001050 f i bufferutil.obj
 0001:00000050       ??4DataView@v8@@QAEAAV01@ABV01@@Z 10001050 f i bufferutil.obj
 0001:00000050       ??4Promise@v8@@QAEAAV01@ABV01@@Z 10001050 f i bufferutil.obj
 0001:00000050       ??4Signature@v8@@QAEAAV01@ABV01@@Z 10001050 f i bufferutil.obj
 0001:00000050       ??4V8@v8@@QAEAAV01@ABV01@@Z 10001050 f i bufferutil.obj
 0001:00000050       ??4Int32Array@v8@@QAEAAV01@ABV01@@Z 10001050 f i bufferutil.obj
 0001:00000050       ??4StackFrame@v8@@QAEAAV01@ABV01@@Z 10001050 f i bufferutil.obj
 0001:00000050       ??4Boolean@v8@@QAEAAV01@ABV01@@Z 10001050 f i bufferutil.obj
 0001:00000050       ??4AccessorSignature@v8@@QAEAAV01@ABV01@@Z 10001050 f i bufferutil.obj
 0001:00000050       ??4Script@v8@@QAEAAV01@ABV01@@Z 10001050 f i bufferutil.obj
 0001:00000050       ??4Name@v8@@QAEAAV01@ABV01@@Z 10001050 f i bufferutil.obj
 0001:00000050       ??4Function@v8@@QAEAAV01@ABV01@@Z 10001050 f i bufferutil.obj
 0001:00000050       ??4Uint32Array@v8@@QAEAAV01@ABV01@@Z 10001050 f i bufferutil.obj
 0001:00000050       ??4Integer@v8@@QAEAAV01@ABV01@@Z 10001050 f i bufferutil.obj
 0001:00000050       ??4RegExp@v8@@QAEAAV01@ABV01@@Z 10001050 f i bufferutil.obj
 0001:00000050       ??4Resolver@Promise@v8@@QAEAAV012@ABV012@@Z 10001050 f i bufferutil.obj
 0001:00000050       ??4Array@v8@@QAEAAV01@ABV01@@Z 10001050 f i bufferutil.obj
 0001:00000050       ??4TypedArray@v8@@QAEAAV01@ABV01@@Z 10001050 f i bufferutil.obj
 0001:00000050       ??4Uint8ClampedArray@v8@@QAEAAV01@ABV01@@Z 10001050 f i bufferutil.obj
 0001:00000050       ??4Int32@v8@@QAEAAV01@ABV01@@Z 10001050 f i bufferutil.obj
 0001:00000050       ??4Uint8Array@v8@@QAEAAV01@ABV01@@Z 10001050 f i bufferutil.obj
 0001:00000050       ??4NumberObject@v8@@QAEAAV01@ABV01@@Z 10001050 f i bufferutil.obj
 0001:00000050       ??4ScriptCompiler@v8@@QAEAAV01@ABV01@@Z 10001050 f i bufferutil.obj
 0001:00000050       ??4External@v8@@QAEAAV01@ABV01@@Z 10001050 f i bufferutil.obj
 0001:00000050       ??4Int16Array@v8@@QAEAAV01@ABV01@@Z 10001050 f i bufferutil.obj
 0001:00000060       ?GetId@Script@v8@@QAEHXZ   10001060 f i bufferutil.obj
 0001:00000080       ??0CachedData@ScriptCompiler@v8@@QAE@XZ 10001080 f i bufferutil.obj
 0001:000000a0       ??1ExternalSourceStream@ScriptCompiler@v8@@UAE@XZ 100010a0 f i bufferutil.obj
 0001:000000b0       ??0ExternalSourceStream@ScriptCompiler@v8@@QAE@XZ 100010b0 f i bufferutil.obj
 0001:000000c0       ??0ExternalSourceStream@ScriptCompiler@v8@@QAE@ABV012@@Z 100010c0 f i bufferutil.obj
 0001:000000d0       ??_EExternalSourceStream@ScriptCompiler@v8@@UAEPAXI@Z 100010d0 f i bufferutil.obj
 0001:00000130       ??1ExternalStringResource@String@v8@@UAE@XZ 10001130 f i bufferutil.obj
 0001:00000130       ??1ExternalStringResourceBase@String@v8@@UAE@XZ 10001130 f i bufferutil.obj
 0001:00000130       ??1ExternalOneByteStringResource@String@v8@@UAE@XZ 10001130 f i bufferutil.obj
 0001:00000130       ??1ExternalOneByteStringResourceImpl@v8@@UAE@XZ 10001130 f i bufferutil.obj
 0001:00000140       ??0ExternalStringResourceBase@String@v8@@IAE@XZ 10001140 f i bufferutil.obj
 0001:00000150       ?Dispose@ExternalStringResourceBase@String@v8@@MAEXXZ 10001150 f i bufferutil.obj
 0001:00000160       ??0ExternalStringResource@String@v8@@IAE@XZ 10001160 f i bufferutil.obj
 0001:00000160       ??0ExternalOneByteStringResource@String@v8@@IAE@XZ 10001160 f i bufferutil.obj
 0001:00000170       ?max_old_space_size@ResourceConstraints@v8@@QBEHXZ 10001170 f i bufferutil.obj
 0001:00000170       ?data@ExternalOneByteStringResourceImpl@v8@@UBEPBDXZ 10001170 f i bufferutil.obj
 0001:00000170       ?object_sub_type@HeapObjectStatistics@v8@@QAEPBDXZ 10001170 f i bufferutil.obj
 0001:00000170       ?space_size@HeapSpaceStatistics@v8@@QAEIXZ 10001170 f i bufferutil.obj
 0001:00000170       ?length@Utf8Value@String@v8@@QBEHXZ 10001170 f i bufferutil.obj
 0001:00000170       ?begin@ExtensionConfiguration@v8@@QBEPAPBDXZ 10001170 f i bufferutil.obj
 0001:00000170       ?total_heap_size_executable@HeapStatistics@v8@@QAEIXZ 10001170 f i bufferutil.obj
 0001:00000170       ?name@Extension@v8@@QBEPBDXZ 10001170 f i bufferutil.obj
 0001:00000170       ?ByteLength@Contents@SharedArrayBuffer@v8@@QBEIXZ 10001170 f i bufferutil.obj
 0001:00000170       ?length@Value@String@v8@@QBEHXZ 10001170 f i bufferutil.obj
 0001:00000170       ?ByteLength@Contents@ArrayBuffer@v8@@QBEIXZ 10001170 f i bufferutil.obj
 0001:00000180       ??_EExternalStringResource@String@v8@@UAEPAXI@Z 10001180 f i bufferutil.obj
 0001:00000180       ??_EExternalStringResourceBase@String@v8@@UAEPAXI@Z 10001180 f i bufferutil.obj
 0001:00000180       ??_EExternalOneByteStringResource@String@v8@@UAEPAXI@Z 10001180 f i bufferutil.obj
 0001:000001e0       ?InternalFieldCount@Object@v8@@SAHABV?$PersistentBase@VObject@v8@@@2@@Z 100011e0 f i bufferutil.obj
 0001:000001f0       ?GetAlignedPointerFromInternalField@Object@v8@@SAPAXABV?$PersistentBase@VObject@v8@@@2@H@Z 100011f0 f i bufferutil.obj
 0001:00000220       ?NewInstance@Function@v8@@QBE?AV?$MaybeLocal@VObject@v8@@@2@V?$Local@VContext@v8@@@2@@Z 10001220 f i bufferutil.obj
 0001:00000240       ??1Allocator@ArrayBuffer@v8@@UAE@XZ 10001240 f i bufferutil.obj
 0001:00000250       ??0Contents@ArrayBuffer@v8@@QAE@XZ 10001250 f i bufferutil.obj
 0001:00000250       ??0Contents@SharedArrayBuffer@v8@@QAE@XZ 10001250 f i bufferutil.obj
 0001:00000250       ??0ExtensionConfiguration@v8@@QAE@XZ 10001250 f i bufferutil.obj
 0001:00000260       ??0Allocator@ArrayBuffer@v8@@QAE@XZ 10001260 f i bufferutil.obj
 0001:00000270       ??0Allocator@ArrayBuffer@v8@@QAE@ABV012@@Z 10001270 f i bufferutil.obj
 0001:00000280       ??_EAllocator@ArrayBuffer@v8@@UAEPAXI@Z 10001280 f i bufferutil.obj
 0001:000002e0       ??4StartupData@v8@@QAEAAV01@ABV01@@Z 100012e0 f i bufferutil.obj
 0001:000002e0       ??4Contents@SharedArrayBuffer@v8@@QAEAAV012@ABV012@@Z 100012e0 f i bufferutil.obj
 0001:000002e0       ??4Contents@ArrayBuffer@v8@@QAEAAV012@ABV012@@Z 100012e0 f i bufferutil.obj
 0001:00000300       ?SetIndexedPropertyHandler@ObjectTemplate@v8@@QAEXP6AXIABV?$PropertyCallbackInfo@VValue@v8@@@2@@ZP6AXIV?$Local@VValue@v8@@@2@0@ZP6AXIABV?$PropertyCallbackInfo@VInteger@v8@@@2@@ZP6AXIABV?$PropertyCallbackInfo@VBoolean@v8@@@2@@ZP6AXABV?$PropertyCallbackInfo@VArray@v8@@@2@@Z2@Z 10001300 f i bufferutil.obj
 0001:00000350       ??0ExternalOneByteStringResourceImpl@v8@@QAE@XZ 10001350 f i bufferutil.obj
 0001:00000370       ??0ExternalOneByteStringResourceImpl@v8@@QAE@PBDI@Z 10001370 f i bufferutil.obj
 0001:00000390       ?object_count@HeapObjectStatistics@v8@@QAEIXZ 10001390 f i bufferutil.obj
 0001:00000390       ?source_length@Extension@v8@@QBEIXZ 10001390 f i bufferutil.obj
 0001:00000390       ?length@ExternalOneByteStringResourceImpl@v8@@UBEIXZ 10001390 f i bufferutil.obj
 0001:00000390       ?space_used_size@HeapSpaceStatistics@v8@@QAEIXZ 10001390 f i bufferutil.obj
 0001:00000390       ?total_physical_size@HeapStatistics@v8@@QAEIXZ 10001390 f i bufferutil.obj
 0001:00000390       ?max_executable_size@ResourceConstraints@v8@@QBEHXZ 10001390 f i bufferutil.obj
 0001:000003a0       ??_EExternalOneByteStringResourceImpl@v8@@UAEPAXI@Z 100013a0 f i bufferutil.obj
 0001:00000400       ??1Extension@v8@@UAE@XZ    10001400 f i bufferutil.obj
 0001:00000410       ?GetNativeFunctionTemplate@Extension@v8@@UAE?AV?$Local@VFunctionTemplate@v8@@@2@PAVIsolate@2@V?$Local@VString@v8@@@2@@Z 10001410 f i bufferutil.obj
 0001:00000420       ?source@Extension@v8@@QBEPBVExternalOneByteStringResource@String@2@XZ 10001420 f i bufferutil.obj
 0001:00000430       ?dependency_count@Extension@v8@@QAEHXZ 10001430 f i bufferutil.obj
 0001:00000440       ?dependencies@Extension@v8@@QAEPAPBDXZ 10001440 f i bufferutil.obj
 0001:00000450       ?set_auto_enable@Extension@v8@@QAEX_N@Z 10001450 f i bufferutil.obj
 0001:00000460       ?auto_enable@Extension@v8@@QAE_NXZ 10001460 f i bufferutil.obj
 0001:00000470       ??_EExtension@v8@@UAEPAXI@Z 10001470 f i bufferutil.obj
 0001:000004e0       ?set_max_semi_space_size@ResourceConstraints@v8@@QAEXH@Z 100014e0 f i bufferutil.obj
 0001:000004f0       ?set_max_old_space_size@ResourceConstraints@v8@@QAEXH@Z 100014f0 f i bufferutil.obj
 0001:00000500       ?set_max_executable_size@ResourceConstraints@v8@@QAEXH@Z 10001500 f i bufferutil.obj
 0001:00000510       ?space_available_size@HeapSpaceStatistics@v8@@QAEIXZ 10001510 f i bufferutil.obj
 0001:00000510       ?total_available_size@HeapStatistics@v8@@QAEIXZ 10001510 f i bufferutil.obj
 0001:00000510       ?stack_limit@ResourceConstraints@v8@@QBEPAIXZ 10001510 f i bufferutil.obj
 0001:00000510       ?object_size@HeapObjectStatistics@v8@@QAEIXZ 10001510 f i bufferutil.obj
 0001:00000520       ?set_stack_limit@ResourceConstraints@v8@@QAEXPAI@Z 10001520 f i bufferutil.obj
 0001:00000530       ?used_heap_size@HeapStatistics@v8@@QAEIXZ 10001530 f i bufferutil.obj
 0001:00000530       ?max_available_threads@ResourceConstraints@v8@@QBEHXZ 10001530 f i bufferutil.obj
 0001:00000530       ?physical_space_size@HeapSpaceStatistics@v8@@QAEIXZ 10001530 f i bufferutil.obj
 0001:00000540       ?set_max_available_threads@ResourceConstraints@v8@@QAEXH@Z 10001540 f i bufferutil.obj
 0001:00000550       ?code_range_size@ResourceConstraints@v8@@QBEIXZ 10001550 f i bufferutil.obj
 0001:00000550       ?heap_size_limit@HeapStatistics@v8@@QAEIXZ 10001550 f i bufferutil.obj
 0001:00000560       ?set_code_range_size@ResourceConstraints@v8@@QAEXI@Z 10001560 f i bufferutil.obj
 0001:00000570       ??4HeapStatistics@v8@@QAEAAV01@ABV01@@Z 10001570 f i bufferutil.obj
 0001:00000570       ??4ResourceConstraints@v8@@QAEAAV01@ABV01@@Z 10001570 f i bufferutil.obj
 0001:00000590       ??4HeapSpaceStatistics@v8@@QAEAAV01@ABV01@@Z 10001590 f i bufferutil.obj
 0001:000005b0       ??4HeapObjectStatistics@v8@@QAEAAV01@ABV01@@Z 100015b0 f i bufferutil.obj
 0001:000005d0       ??1ExternalResourceVisitor@v8@@UAE@XZ 100015d0 f i bufferutil.obj
 0001:000005e0       ?VisitExternalString@ExternalResourceVisitor@v8@@UAEXV?$Local@VString@v8@@@2@@Z 100015e0 f i bufferutil.obj
 0001:000005f0       ??0ExternalResourceVisitor@v8@@QAE@XZ 100015f0 f i bufferutil.obj
 0001:00000600       ??0ExternalResourceVisitor@v8@@QAE@ABV01@@Z 10001600 f i bufferutil.obj
 0001:00000610       ??_EExternalResourceVisitor@v8@@UAEPAXI@Z 10001610 f i bufferutil.obj
 0001:00000670       ??1PersistentHandleVisitor@v8@@UAE@XZ 10001670 f i bufferutil.obj
 0001:00000680       ?VisitPersistentHandle@PersistentHandleVisitor@v8@@UAEXPAV?$Persistent@VValue@v8@@V?$NonCopyablePersistentTraits@VValue@v8@@@2@@2@G@Z 10001680 f i bufferutil.obj
 0001:00000690       ??0PersistentHandleVisitor@v8@@QAE@XZ 10001690 f i bufferutil.obj
 0001:000006a0       ??0PersistentHandleVisitor@v8@@QAE@ABV01@@Z 100016a0 f i bufferutil.obj
 0001:000006b0       ??_EPersistentHandleVisitor@v8@@UAEPAXI@Z 100016b0 f i bufferutil.obj
 0001:00000710       ??0Scope@Isolate@v8@@QAE@PAV12@@Z 10001710 f i bufferutil.obj
 0001:00000730       ??1Scope@Isolate@v8@@QAE@XZ 10001730 f i bufferutil.obj
 0001:00000740       ?JSStackComparableAddress@TryCatch@v8@@SAPAXPAV12@@Z 10001740 f i bufferutil.obj
 0001:00000750       ??0ExtensionConfiguration@v8@@QAE@HQAPBD@Z 10001750 f i bufferutil.obj
 0001:00000770       ?end@ExtensionConfiguration@v8@@QBEPAPBDXZ 10001770 f i bufferutil.obj
 0001:00000780       ??0Unlocker@v8@@QAE@PAVIsolate@1@@Z 10001780 f i bufferutil.obj
 0001:000007a0       ??4Unlocker@v8@@QAEAAV01@ABV01@@Z 100017a0 f i bufferutil.obj
 0001:000007b0       ??0Locker@v8@@QAE@PAVIsolate@1@@Z 100017b0 f i bufferutil.obj
 0001:000007d0       ?New@Boolean@v8@@SA?AV?$Local@VBoolean@v8@@@2@PAVIsolate@2@_N@Z 100017d0 f i bufferutil.obj
 0001:00000800       ?Set@Template@v8@@QAEXPAVIsolate@2@PBDV?$Local@VData@v8@@@2@@Z 10001800 f i bufferutil.obj
 0001:00000850       ?GetInternalField@Object@v8@@QAE?AV?$Local@VValue@v8@@@2@H@Z 10001850 f i bufferutil.obj
 0001:00000890       ?GetAlignedPointerFromInternalField@Object@v8@@QAEPAXH@Z 10001890 f i bufferutil.obj
 0001:000008b0       ?Cast@Boolean@v8@@SAPAV12@PAVValue@2@@Z 100018b0 f i bufferutil.obj
 0001:000008b0       ?Cast@External@v8@@SAPAV12@PAVValue@2@@Z 100018b0 f i bufferutil.obj
 0001:000008b0       ?Cast@Name@v8@@SAPAV12@PAVValue@2@@Z 100018b0 f i bufferutil.obj
 0001:000008b0       ?Cast@Int16Array@v8@@SAPAV12@PAVValue@2@@Z 100018b0 f i bufferutil.obj
 0001:000008b0       ?Cast@DataView@v8@@SAPAV12@PAVValue@2@@Z 100018b0 f i bufferutil.obj
 0001:000008b0       ?Cast@Object@v8@@SAPAV12@PAVValue@2@@Z 100018b0 f i bufferutil.obj
 0001:000008b0       ?Cast@TypedArray@v8@@SAPAV12@PAVValue@2@@Z 100018b0 f i bufferutil.obj
 0001:000008b0       ?Cast@Date@v8@@SAPAV12@PAVValue@2@@Z 100018b0 f i bufferutil.obj
 0001:000008b0       ?Cast@SharedArrayBuffer@v8@@SAPAV12@PAVValue@2@@Z 100018b0 f i bufferutil.obj
 0001:000008b0       ?Cast@Uint16Array@v8@@SAPAV12@PAVValue@2@@Z 100018b0 f i bufferutil.obj
 0001:000008b0       ?Cast@RegExp@v8@@SAPAV12@PAVValue@2@@Z 100018b0 f i bufferutil.obj
 0001:000008b0       ?Cast@Array@v8@@SAPAV12@PAVValue@2@@Z 100018b0 f i bufferutil.obj
 0001:000008b0       ?Cast@SymbolObject@v8@@SAPAV12@PAVValue@2@@Z 100018b0 f i bufferutil.obj
 0001:000008b0       ?Cast@ArrayBuffer@v8@@SAPAV12@PAVValue@2@@Z 100018b0 f i bufferutil.obj
 0001:000008b0       ?Cast@Resolver@Promise@v8@@SAPAV123@PAVValue@3@@Z 100018b0 f i bufferutil.obj
 0001:000008b0       ?Cast@Number@v8@@SAPAV12@PAVValue@2@@Z 100018b0 f i bufferutil.obj
 0001:000008b0       ?Cast@Uint32@v8@@SAPAV12@PAVValue@2@@Z 100018b0 f i bufferutil.obj
 0001:000008b0       ?Cast@Int32@v8@@SAPAV12@PAVValue@2@@Z 100018b0 f i bufferutil.obj
 0001:000008b0       ?Cast@Map@v8@@SAPAV12@PAVValue@2@@Z 100018b0 f i bufferutil.obj
 0001:000008b0       ?Cast@ArrayBufferView@v8@@SAPAV12@PAVValue@2@@Z 100018b0 f i bufferutil.obj
 0001:000008b0       ?Cast@Float32Array@v8@@SAPAV12@PAVValue@2@@Z 100018b0 f i bufferutil.obj
 0001:000008b0       ?Cast@Symbol@v8@@SAPAV12@PAVValue@2@@Z 100018b0 f i bufferutil.obj
 0001:000008b0       ?Cast@Float64Array@v8@@SAPAV12@PAVValue@2@@Z 100018b0 f i bufferutil.obj
 0001:000008b0       ?Cast@NumberObject@v8@@SAPAV12@PAVValue@2@@Z 100018b0 f i bufferutil.obj
 0001:000008b0       ?Cast@Set@v8@@SAPAV12@PAVValue@2@@Z 100018b0 f i bufferutil.obj
 0001:000008b0       ?Cast@Promise@v8@@SAPAV12@PAVValue@2@@Z 100018b0 f i bufferutil.obj
 0001:000008b0       ?Cast@BooleanObject@v8@@SAPAV12@PAVValue@2@@Z 100018b0 f i bufferutil.obj
 0001:000008b0       ?Cast@Uint8Array@v8@@SAPAV12@PAVValue@2@@Z 100018b0 f i bufferutil.obj
 0001:000008b0       ?Cast@Integer@v8@@SAPAV12@PAVValue@2@@Z 100018b0 f i bufferutil.obj
 0001:000008b0       ?Cast@StringObject@v8@@SAPAV12@PAVValue@2@@Z 100018b0 f i bufferutil.obj
 0001:000008b0       ?Cast@String@v8@@SAPAV12@PAVValue@2@@Z 100018b0 f i bufferutil.obj
 0001:000008b0       ?Cast@Function@v8@@SAPAV12@PAVValue@2@@Z 100018b0 f i bufferutil.obj
 0001:000008b0       ?Cast@Uint8ClampedArray@v8@@SAPAV12@PAVValue@2@@Z 100018b0 f i bufferutil.obj
 0001:000008b0       ?Cast@Int8Array@v8@@SAPAV12@PAVValue@2@@Z 100018b0 f i bufferutil.obj
 0001:000008b0       ?Cast@Int32Array@v8@@SAPAV12@PAVValue@2@@Z 100018b0 f i bufferutil.obj
 0001:000008b0       ?Cast@Uint32Array@v8@@SAPAV12@PAVValue@2@@Z 100018b0 f i bufferutil.obj
 0001:000008c0       ?Empty@String@v8@@SA?AV?$Local@VString@v8@@@2@PAVIsolate@2@@Z 100018c0 f i bufferutil.obj
 0001:000008d0       ?GetExternalStringResource@String@v8@@QBEPAVExternalStringResource@12@XZ 100018d0 f i bufferutil.obj
 0001:000008f0       ?GetExternalStringResourceBase@String@v8@@QBEPAVExternalStringResourceBase@12@PAW4Encoding@12@@Z 100018f0 f i bufferutil.obj
 0001:00000920       ?IsUndefined@Value@v8@@QBE_NXZ 10001920 f i bufferutil.obj
 0001:00000950       ?QuickIsUndefined@Value@v8@@ABE_NXZ 10001950 f i bufferutil.obj
 0001:00000980       ?IsNull@Value@v8@@QBE_NXZ  10001980 f i bufferutil.obj
 0001:000009b0       ?QuickIsNull@Value@v8@@ABE_NXZ 100019b0 f i bufferutil.obj
 0001:000009e0       ?IsString@Value@v8@@QBE_NXZ 100019e0 f i bufferutil.obj
 0001:00000a10       ?QuickIsString@Value@v8@@ABE_NXZ 10001a10 f i bufferutil.obj
 0001:00000a40       ?ToBoolean@Value@v8@@QBE?AV?$Local@VBoolean@v8@@@2@XZ 10001a40 f i bufferutil.obj
 0001:00000a90       ?ToNumber@Value@v8@@QBE?AV?$Local@VNumber@v8@@@2@XZ 10001a90 f i bufferutil.obj
 0001:00000ae0       ?ToString@Value@v8@@QBE?AV?$Local@VString@v8@@@2@XZ 10001ae0 f i bufferutil.obj
 0001:00000b30       ?ToDetailString@Value@v8@@QBE?AV?$Local@VString@v8@@@2@XZ 10001b30 f i bufferutil.obj
 0001:00000b80       ?ToObject@Value@v8@@QBE?AV?$Local@VObject@v8@@@2@XZ 10001b80 f i bufferutil.obj
 0001:00000bd0       ?ToInteger@Value@v8@@QBE?AV?$Local@VInteger@v8@@@2@XZ 10001bd0 f i bufferutil.obj
 0001:00000c20       ?ToUint32@Value@v8@@QBE?AV?$Local@VUint32@v8@@@2@XZ 10001c20 f i bufferutil.obj
 0001:00000c70       ?ToInt32@Value@v8@@QBE?AV?$Local@VInt32@v8@@@2@XZ 10001c70 f i bufferutil.obj
 0001:00000cc0       ?SetData@Isolate@v8@@QAEXIPAX@Z 10001cc0 f i bufferutil.obj
 0001:00000cd0       ?GetData@Isolate@v8@@QAEPAXI@Z 10001cd0 f i bufferutil.obj
 0001:00000ce0       ?GetNumberOfDataSlots@Isolate@v8@@SAIXZ 10001ce0 f i bufferutil.obj
 0001:00000cf0       ?AdjustAmountOfExternalAllocatedMemory@Isolate@v8@@QAE_J_J@Z 10001cf0 f i bufferutil.obj
 0001:00000d50       ?GetEmbedderData@Context@v8@@QAE?AV?$Local@VValue@v8@@@2@H@Z 10001d50 f i bufferutil.obj
 0001:00000d80       ?GetAlignedPointerFromEmbedderData@Context@v8@@QAEPAXH@Z 10001d80 f i bufferutil.obj
 0001:00000da0       ?SetAllowCodeGenerationFromStringsCallback@V8@v8@@SAXP6A_NV?$Local@VContext@v8@@@2@@Z@Z 10001da0 f i bufferutil.obj
 0001:00000dc0       ?IsDead@V8@v8@@SA_NXZ      10001dc0 f i bufferutil.obj
 0001:00000dd0       ?AddMessageListener@V8@v8@@SA_NP6AXV?$Local@VMessage@v8@@@2@V?$Local@VValue@v8@@@2@@Z1@Z 10001dd0 f i bufferutil.obj
 0001:00000df0       ?RemoveMessageListeners@V8@v8@@SAXP6AXV?$Local@VMessage@v8@@@2@V?$Local@VValue@v8@@@2@@Z@Z 10001df0 f i bufferutil.obj
 0001:00000e10       ?SetFailedAccessCheckCallbackFunction@V8@v8@@SAXP6AXV?$Local@VObject@v8@@@2@W4AccessType@2@V?$Local@VValue@v8@@@2@@Z@Z 10001e10 f i bufferutil.obj
 0001:00000e30       ?SetCaptureStackTraceForUncaughtExceptions@V8@v8@@SAX_NHW4StackTraceOptions@StackTrace@2@@Z 10001e30 f i bufferutil.obj
 0001:00000e50       ?SetFatalErrorHandler@V8@v8@@SAXP6AXPBD0@Z@Z 10001e50 f i bufferutil.obj
 0001:00000e70       ?RemoveGCPrologueCallback@V8@v8@@SAXP6AXW4GCType@2@W4GCCallbackFlags@2@@Z@Z 10001e70 f i bufferutil.obj
 0001:00000e90       ?RemoveGCEpilogueCallback@V8@v8@@SAXP6AXW4GCType@2@W4GCCallbackFlags@2@@Z@Z 10001e90 f i bufferutil.obj
 0001:00000eb0       ?AddMemoryAllocationCallback@V8@v8@@SAXP6AXW4ObjectSpace@2@W4AllocationAction@2@H@Z01@Z 10001eb0 f i bufferutil.obj
 0001:00000ed0       ?RemoveMemoryAllocationCallback@V8@v8@@SAXP6AXW4ObjectSpace@2@W4AllocationAction@2@H@Z@Z 10001ed0 f i bufferutil.obj
 0001:00000ef0       ?TerminateExecution@V8@v8@@SAXPAVIsolate@2@@Z 10001ef0 f i bufferutil.obj
 0001:00000f00       ?IsExecutionTerminating@V8@v8@@SA_NPAVIsolate@2@@Z 10001f00 f i bufferutil.obj
 0001:00000f20       ?CancelTerminateExecution@V8@v8@@SAXPAVIsolate@2@@Z 10001f20 f i bufferutil.obj
 0001:00000f30       ?VisitExternalResources@V8@v8@@SAXPAVExternalResourceVisitor@2@@Z 10001f30 f i bufferutil.obj
 0001:00000f50       ?VisitHandlesWithClassIds@V8@v8@@SAXPAVPersistentHandleVisitor@2@@Z 10001f50 f i bufferutil.obj
 0001:00000f70       ?VisitHandlesWithClassIds@V8@v8@@SAXPAVIsolate@2@PAVPersistentHandleVisitor@2@@Z 10001f70 f i bufferutil.obj
 0001:00000f80       ?VisitHandlesForPartialDependence@V8@v8@@SAXPAVIsolate@2@PAVPersistentHandleVisitor@2@@Z 10001f80 f i bufferutil.obj
 0001:00000f90       ?Wrap@ObjectWrap@node@@IAEXV?$Local@VObject@v8@@@v8@@@Z 10001f90 f i bufferutil.obj
 0001:00001040       ?Ref@ObjectWrap@node@@MAEXXZ 10002040 f i bufferutil.obj
 0001:00001070       ?Unref@ObjectWrap@node@@MAEXXZ 10002070 f i bufferutil.obj
 0001:00001100       ?WeakCallback@ObjectWrap@node@@CAXABV?$WeakCallbackData@VObject@v8@@VObjectWrap@node@@@v8@@@Z 10002100 f i bufferutil.obj
 0001:000011d0       ??_GObjectWrap@node@@UAEPAXI@Z 100021d0 f i bufferutil.obj
 0001:000011d0       ??_EObjectWrap@node@@UAEPAXI@Z 100021d0 f i * CIL library *:* CIL module *
 0001:000011d0       ??_EBufferUtil@@UAEPAXI@Z  100021d0 f i * CIL library *:* CIL module *
 0001:000011d0       ??_GBufferUtil@@UAEPAXI@Z  100021d0 f i bufferutil.obj
 0001:000012f0       ?New@?$Factory@VFunctionTemplate@v8@@@imp@Nan@@SA?AV?$Local@VFunctionTemplate@v8@@@v8@@P6AXABV?$FunctionCallbackInfo@VValue@v8@@@3@@ZV?$Local@VValue@v8@@@5@V?$Local@VSignature@v8@@@5@@Z 100022f0 f i bufferutil.obj
 0001:00001410       ?Initialize@BufferUtil@@SAXV?$Local@VObject@v8@@@v8@@@Z 10002410 f i bufferutil.obj
 0001:00001510       ?New@BufferUtil@@KAXABV?$FunctionCallbackInfo@VValue@v8@@@Nan@@@Z 10002510 f i bufferutil.obj
 0001:000015a0       ?Merge@BufferUtil@@KAXABV?$FunctionCallbackInfo@VValue@v8@@@Nan@@@Z 100025a0 f i bufferutil.obj
 0001:00001720       ?Unmask@BufferUtil@@KAXABV?$FunctionCallbackInfo@VValue@v8@@@Nan@@@Z 10002720 f i bufferutil.obj
 0001:00001870       ?Mask@BufferUtil@@KAXABV?$FunctionCallbackInfo@VValue@v8@@@Nan@@@Z 10002870 f i bufferutil.obj
 0001:00001a90       ?init@@YAXV?$Local@VObject@v8@@@v8@@@Z 10002a90 f   bufferutil.obj
 0001:00001ad0       ??$SetMethod@VFunctionTemplate@v8@@VLocal@2@@Nan@@YAXV?$Local@VFunctionTemplate@v8@@@v8@@PBDP6AXABV?$FunctionCallbackInfo@VValue@v8@@@0@@Z@Z 10002ad0 f i bufferutil.obj
 0001:00001bab       __imp_load_?Length@Buffer@node@@YAIV?$Local@VObject@v8@@@v8@@@Z 10002bab f   node:node.exe
 0001:00001bb5       __tailMerge_node_exe       10002bb5 f i node:node.exe
 0001:00001bc6       __imp_load_?Data@Buffer@node@@YAPADV?$Local@VObject@v8@@@v8@@@Z 10002bc6 f   node:node.exe
 0001:00001bd0       __imp_load__node_module_register 10002bd0 f   node:node.exe
 0001:00001bda       __imp_load_?Initialize@Locker@v8@@AAEXPAVIsolate@2@@Z 10002bda f   node:node.exe
 0001:00001be4       __imp_load_?GetId@UnboundScript@v8@@QAEHXZ 10002be4 f   node:node.exe
 0001:00001bee       __imp_load_?GetUnboundScript@Script@v8@@QAE?AV?$Local@VUnboundScript@v8@@@2@XZ 10002bee f   node:node.exe
 0001:00001bf8       __imp_load_?ToLocalEmpty@V8@v8@@CAXXZ 10002bf8 f   node:node.exe
 0001:00001c02       __imp_load_?ClearWeak@V8@v8@@CAPAXPAPAVObject@internal@2@@Z 10002c02 f   node:node.exe
 0001:00001c0c       __imp_load_?MakeWeak@V8@v8@@CAXPAPAVObject@internal@2@PAXP6AXABV?$WeakCallbackData@VValue@v8@@X@2@@Z@Z 10002c0c f   node:node.exe
 0001:00001c16       __imp_load_?DisposeGlobal@V8@v8@@CAXPAPAVObject@internal@2@@Z 10002c16 f   node:node.exe
 0001:00001c20       __imp_load_?GlobalizeReference@V8@v8@@CAPAPAVObject@internal@2@PAVIsolate@42@PAPAV342@@Z 10002c20 f   node:node.exe
 0001:00001c2a       __imp_load_?Escape@EscapableHandleScope@v8@@AAEPAPAVObject@internal@2@PAPAV342@@Z 10002c2a f   node:node.exe
 0001:00001c34       __imp_load_??0EscapableHandleScope@v8@@QAE@PAVIsolate@1@@Z 10002c34 f   node:node.exe
 0001:00001c3e       __imp_load_?Int32Value@Value@v8@@QBEHXZ 10002c3e f   node:node.exe
 0001:00001c48       __imp_load_?ToInt32@Value@v8@@QBE?AV?$MaybeLocal@VInt32@v8@@@2@V?$Local@VContext@v8@@@2@@Z 10002c48 f   node:node.exe
 0001:00001c52       __imp_load_?ToUint32@Value@v8@@QBE?AV?$MaybeLocal@VUint32@v8@@@2@V?$Local@VContext@v8@@@2@@Z 10002c52 f   node:node.exe
 0001:00001c5c       __imp_load_?ToInteger@Value@v8@@QBE?AV?$MaybeLocal@VInteger@v8@@@2@V?$Local@VContext@v8@@@2@@Z 10002c5c f   node:node.exe
 0001:00001c66       __imp_load_?ToObject@Value@v8@@QBE?AV?$MaybeLocal@VObject@v8@@@2@V?$Local@VContext@v8@@@2@@Z 10002c66 f   node:node.exe
 0001:00001c70       __imp_load_?ToDetailString@Value@v8@@QBE?AV?$MaybeLocal@VString@v8@@@2@V?$Local@VContext@v8@@@2@@Z 10002c70 f   node:node.exe
 0001:00001c7a       __imp_load_?ToString@Value@v8@@QBE?AV?$MaybeLocal@VString@v8@@@2@V?$Local@VContext@v8@@@2@@Z 10002c7a f   node:node.exe
 0001:00001c84       __imp_load_?ToNumber@Value@v8@@QBE?AV?$MaybeLocal@VNumber@v8@@@2@V?$Local@VContext@v8@@@2@@Z 10002c84 f   node:node.exe
 0001:00001c8e       __imp_load_?ToBoolean@Value@v8@@QBE?AV?$MaybeLocal@VBoolean@v8@@@2@V?$Local@VContext@v8@@@2@@Z 10002c8e f   node:node.exe
 0001:00001c98       __imp_load_?SetClassName@FunctionTemplate@v8@@QAEXV?$Local@VString@v8@@@2@@Z 10002c98 f   node:node.exe
 0001:00001ca2       __imp_load_?InstanceTemplate@FunctionTemplate@v8@@QAE?AV?$Local@VObjectTemplate@v8@@@2@XZ 10002ca2 f   node:node.exe
 0001:00001cac       __imp_load_?GetFunction@FunctionTemplate@v8@@QAE?AV?$Local@VFunction@v8@@@2@XZ 10002cac f   node:node.exe
 0001:00001cb6       __imp_load_?New@FunctionTemplate@v8@@SA?AV?$Local@VFunctionTemplate@v8@@@2@PAVIsolate@2@P6AXABV?$FunctionCallbackInfo@VValue@v8@@@2@@ZV?$Local@VValue@v8@@@2@V?$Local@VSignature@v8@@@2@H@Z 10002cb6 f   node:node.exe
 0001:00001cc0       __imp_load_?NewFromUtf8@String@v8@@SA?AV?$MaybeLocal@VString@v8@@@2@PAVIsolate@2@PBDW4NewStringType@2@H@Z 10002cc0 f   node:node.exe
 0001:00001cca       __imp_load_?Length@Array@v8@@QBEIXZ 10002cca f   node:node.exe
 0001:00001cd4       __imp_load_?CreateHandle@HandleScope@v8@@KAPAPAVObject@internal@2@PAVIsolate@42@PAV342@@Z 10002cd4 f   node:node.exe
 0001:00001cde       __imp_load_?CreateHandle@HandleScope@v8@@CAPAPAVObject@internal@2@PAVHeapObject@42@PAV342@@Z 10002cde f   node:node.exe
 0001:00001ce8       __imp_load_??1HandleScope@v8@@QAE@XZ 10002ce8 f   node:node.exe
 0001:00001cf2       __imp_load_??0HandleScope@v8@@QAE@PAVIsolate@1@@Z 10002cf2 f   node:node.exe
 0001:00001cfc       __imp_load_?SlowGetAlignedPointerFromInternalField@Object@v8@@AAEPAXH@Z 10002cfc f   node:node.exe
 0001:00001d06       __imp_load_?SlowGetInternalField@Object@v8@@AAE?AV?$Local@VValue@v8@@@2@H@Z 10002d06 f   node:node.exe
 0001:00001d10       __imp_load_?SetAlignedPointerInInternalField@Object@v8@@QAEXHPAX@Z 10002d10 f   node:node.exe
 0001:00001d1a       __imp_load_?SetInternalField@Object@v8@@QAEXHV?$Local@VValue@v8@@@2@@Z 10002d1a f   node:node.exe
 0001:00001d24       __imp_load_?InternalFieldCount@Object@v8@@QAEHXZ 10002d24 f   node:node.exe
 0001:00001d2e       __imp_load_?Get@Object@v8@@QAE?AV?$Local@VValue@v8@@@2@I@Z 10002d2e f   node:node.exe
 0001:00001d38       __imp_load_?Set@Object@v8@@QAE?AV?$Maybe@_N@2@V?$Local@VContext@v8@@@2@V?$Local@VValue@v8@@@2@1@Z 10002d38 f   node:node.exe
 0001:00001d42       __imp_load_?Initialize@Unlocker@v8@@AAEXPAVIsolate@2@@Z 10002d42 f   node:node.exe
 0001:00001d4c       __imp_load_?Set@Template@v8@@QAEXV?$Local@VName@v8@@@2@V?$Local@VData@v8@@@2@W4PropertyAttribute@2@@Z 10002d4c f   node:node.exe
 0001:00001d56       __imp_load_?SetInternalFieldCount@ObjectTemplate@v8@@QAEXH@Z 10002d56 f   node:node.exe
 0001:00001d60       __imp_load_?SetHandler@ObjectTemplate@v8@@QAEXABUIndexedPropertyHandlerConfiguration@2@@Z 10002d60 f   node:node.exe
 0001:00001d6a       __imp_load_?NewInstance@ObjectTemplate@v8@@QAE?AV?$MaybeLocal@VObject@v8@@@2@V?$Local@VContext@v8@@@2@@Z 10002d6a f   node:node.exe
 0001:00001d74       __imp_load_?New@ObjectTemplate@v8@@SA?AV?$Local@VObjectTemplate@v8@@@2@PAVIsolate@2@V?$Local@VFunctionTemplate@v8@@@2@@Z 10002d74 f   node:node.exe
 0001:00001d7e       __imp_load_?NewInstance@Function@v8@@QBE?AV?$MaybeLocal@VObject@v8@@@2@V?$Local@VContext@v8@@@2@HQAV?$Local@VValue@v8@@@2@@Z 10002d7e f   node:node.exe
 0001:00001d88       __imp_load_?CollectAllGarbage@Isolate@v8@@AAEXPBD@Z 10002d88 f   node:node.exe
 0001:00001d92       __imp_load_?VisitHandlesForPartialDependence@Isolate@v8@@QAEXPAVPersistentHandleVisitor@2@@Z 10002d92 f   node:node.exe
 0001:00001d9c       __imp_load_?VisitHandlesWithClassIds@Isolate@v8@@QAEXPAVPersistentHandleVisitor@2@@Z 10002d9c f   node:node.exe
 0001:00001da6       __imp_load_?VisitExternalResources@Isolate@v8@@QAEXPAVExternalResourceVisitor@2@@Z 10002da6 f   node:node.exe
 0001:00001db0       __imp_load_?RemoveMemoryAllocationCallback@Isolate@v8@@QAEXP6AXW4ObjectSpace@2@W4AllocationAction@2@H@Z@Z 10002db0 f   node:node.exe
 0001:00001dba       __imp_load_?AddMemoryAllocationCallback@Isolate@v8@@QAEXP6AXW4ObjectSpace@2@W4AllocationAction@2@H@Z01@Z 10002dba f   node:node.exe
 0001:00001dc4       __imp_load_?SetCaptureStackTraceForUncaughtExceptions@Isolate@v8@@QAEX_NHW4StackTraceOptions@StackTrace@2@@Z 10002dc4 f   node:node.exe
 0001:00001dce       __imp_load_?SetFailedAccessCheckCallbackFunction@Isolate@v8@@QAEXP6AXV?$Local@VObject@v8@@@2@W4AccessType@2@V?$Local@VValue@v8@@@2@@Z@Z 10002dce f   node:node.exe
 0001:00001dd8       __imp_load_?RemoveMessageListeners@Isolate@v8@@QAEXP6AXV?$Local@VMessage@v8@@@2@V?$Local@VValue@v8@@@2@@Z@Z 10002dd8 f   node:node.exe
 0001:00001de2       __imp_load_?AddMessageListener@Isolate@v8@@QAE_NP6AXV?$Local@VMessage@v8@@@2@V?$Local@VValue@v8@@@2@@Z1@Z 10002de2 f   node:node.exe
 0001:00001dec       __imp_load_?IsDead@Isolate@v8@@QAE_NXZ 10002dec f   node:node.exe
 0001:00001df6       __imp_load_?SetAllowCodeGenerationFromStringsCallback@Isolate@v8@@QAEXP6A_NV?$Local@VContext@v8@@@2@@Z@Z 10002df6 f   node:node.exe
 0001:00001e00       __imp_load_?SetFatalErrorHandler@Isolate@v8@@QAEXP6AXPBD0@Z@Z 10002e00 f   node:node.exe
 0001:00001e0a       __imp_load_?CancelTerminateExecution@Isolate@v8@@QAEXXZ 10002e0a f   node:node.exe
 0001:00001e14       __imp_load_?IsExecutionTerminating@Isolate@v8@@QAE_NXZ 10002e14 f   node:node.exe
 0001:00001e1e       __imp_load_?TerminateExecution@Isolate@v8@@QAEXXZ 10002e1e f   node:node.exe
 0001:00001e28       __imp_load_?RemoveGCEpilogueCallback@Isolate@v8@@QAEXP6AXPAV12@W4GCType@2@W4GCCallbackFlags@2@@Z@Z 10002e28 f   node:node.exe
 0001:00001e32       __imp_load_?RemoveGCPrologueCallback@Isolate@v8@@QAEXP6AXPAV12@W4GCType@2@W4GCCallbackFlags@2@@Z@Z 10002e32 f   node:node.exe
 0001:00001e3c       __imp_load_?GetCurrentContext@Isolate@v8@@QAE?AV?$Local@VContext@v8@@@2@XZ 10002e3c f   node:node.exe
 0001:00001e46       __imp_load_?Exit@Isolate@v8@@QAEXXZ 10002e46 f   node:node.exe
 0001:00001e50       __imp_load_?Enter@Isolate@v8@@QAEXXZ 10002e50 f   node:node.exe
 0001:00001e5a       __imp_load_?GetCurrent@Isolate@v8@@SAPAV12@XZ 10002e5a f   node:node.exe
 0001:00001e64       __imp_load_?ResetToBookmark@ExternalSourceStream@ScriptCompiler@v8@@UAEXXZ 10002e64 f   node:node.exe
 0001:00001e6e       ?ResetToBookmark@ExternalSourceStream@ScriptCompiler@v8@@UAEXXZ 10002e6e f   node:node.exe
 0001:00001e74       __imp_load_?SetBookmark@ExternalSourceStream@ScriptCompiler@v8@@UAE_NXZ 10002e74 f   node:node.exe
 0001:00001e7e       ?SetBookmark@ExternalSourceStream@ScriptCompiler@v8@@UAE_NXZ 10002e7e f   node:node.exe
 0001:00001e84       __imp_load_?Value@External@v8@@QBEPAXXZ 10002e84 f   node:node.exe
 0001:00001e8e       __imp_load_?New@External@v8@@SA?AV?$Local@VExternal@v8@@@2@PAVIsolate@2@PAX@Z 10002e8e f   node:node.exe
 0001:00001e98       ??0bad_alloc@std@@QAE@ABV01@@Z 10002e98 f i libcpmt:xthrow.obj
 0001:00001eb3       ??1bad_alloc@std@@UAE@XZ   10002eb3 f i libcpmt:xthrow.obj
 0001:00001ebe       ??_Gbad_alloc@std@@UAEPAXI@Z 10002ebe f i libcpmt:xthrow.obj
 0001:00001ebe       ??_Ebad_alloc@std@@UAEPAXI@Z 10002ebe f i libcpmt:xthrow.obj
 0001:00001ee3       @__security_check_cookie@4 10002ee3 f   LIBCMT:secchk.obj
 0001:00001f00       _memmove                   10002f00 f   LIBCMT:memmove.obj
 0001:00002544       __wassert                  10003544 f   LIBCMT:wassert.obj
 0001:00002be8       ___onexitinit              10003be8 f   LIBCMT:onexit.obj
 0001:00002c17       __onexit                   10003c17 f   LIBCMT:onexit.obj
 0001:00002d13       _atexit                    10003d13 f   LIBCMT:onexit.obj
 0001:00002d28       __purecall                 10003d28 f   LIBCMT:purevirt.obj
 0001:00002d4a       ??3@YAXPAX@Z               10003d4a f   LIBCMT:delete.obj
 0001:00002d4f       ??2@YAPAXI@Z               10003d4f f   LIBCMT:new.obj
 0001:00002da0       ??0_LocaleUpdate@@QAE@PAUlocaleinfo_struct@@@Z 10003da0 f i LIBCMT:stricmp.obj
 0001:00002e28       ___ascii_stricmp           10003e28 f   LIBCMT:stricmp.obj
 0001:00002e61       __stricmp                  10003e61 f   LIBCMT:stricmp.obj
 0001:00002ea8       __stricmp_l                10003ea8 f   LIBCMT:stricmp.obj
 0001:00002f3d       __CRT_INIT@12              10003f3d f   LIBCMT:dllcrt0.obj
 0001:000030af       __DllMainCRTStartup@12     100040af f   LIBCMT:dllcrt0.obj
 0001:000031e0       ___DllXcptFilter           100041e0 f   LIBCMT:dllcrt0.obj
 0001:00003210       _memcpy                    10004210 f   LIBCMT:memcpy.obj
 0001:00003860       _strlen                    10004860 f   LIBCMT:strlen.obj
 0001:000038eb       __CxxThrowException@8      100048eb f   LIBCMT:throw.obj
 0001:0000394e       ?_CallMemberFunction0@@YGXPAX0@Z 1000494e f   LIBCMT:_trnsctrl_.obj
 0001:00003955       ??1type_info@@UAE@XZ       10004955 f   LIBCMT:typinfo.obj
 0001:00003963       ??_Etype_info@@UAEPAXI@Z   10004963 f i LIBCMT:typinfo.obj
 0001:00003963       ??_Gtype_info@@UAEPAXI@Z   10004963 f i LIBCMT:typinfo.obj
 0001:00003982       __fpmath                   10004982 f   LIBCMT:fpinit.obj
 0001:00003999       __cfltcvt_init             10004999 f   LIBCMT:fpinit.obj
 0001:000039f9       ??0exception@std@@QAE@ABQBDH@Z 100049f9 f   LIBCMT:stdexcpt.obj
 0001:00003a14       ??0exception@std@@QAE@ABV01@@Z 10004a14 f   LIBCMT:stdexcpt.obj
 0001:00003a37       ??1exception@std@@UAE@XZ   10004a37 f   LIBCMT:stdexcpt.obj
 0001:00003a42       ??4exception@std@@QAEAAV01@ABV01@@Z 10004a42 f   LIBCMT:stdexcpt.obj
 0001:00003a75       ??_Eexception@std@@UAEPAXI@Z 10004a75 f i LIBCMT:stdexcpt.obj
 0001:00003a75       ??_Gexception@std@@UAEPAXI@Z 10004a75 f i LIBCMT:stdexcpt.obj
 0001:00003a9a       ?_Copy_str@exception@std@@AAEXPBD@Z 10004a9a f   LIBCMT:stdexcpt.obj
 0001:00003ad8       ?_Tidy@exception@std@@AAEXXZ 10004ad8 f   LIBCMT:stdexcpt.obj
 0001:00003af4       ?what@exception@std@@UBEPBDXZ 10004af4 f   LIBCMT:stdexcpt.obj
 0001:00003b01       ___raise_securityfailure   10004b01 f   LIBCMT:gs_report.obj
 0001:00003b3e       ___report_gsfailure        10004b3e f   LIBCMT:gs_report.obj
 0001:00003c39       ___isa_available_init      10004c39 f   LIBCMT:cpu_disp.obj
 0001:00003db2       __call_reportfault         10004db2 f   LIBCMT:invarg.obj
 0001:00003ed7       __initp_misc_invarg        10004ed7 f   LIBCMT:invarg.obj
 0001:00003ee4       __invalid_parameter        10004ee4 f   LIBCMT:invarg.obj
 0001:00003f0f       __invalid_parameter_noinfo 10004f0f f   LIBCMT:invarg.obj
 0001:00003f1f       __invoke_watson            10004f1f f   LIBCMT:invarg.obj
 0001:00003f4a       _memcpy_s                  10004f4a f   LIBCMT:memcpy_s.obj
 0001:00003fc9       _wcscat_s                  10004fc9 f   LIBCMT:wcscat_s.obj
 0001:00004035       _wcscpy_s                  10005035 f   LIBCMT:wcscpy_s.obj
 0001:00004091       _wcslen                    10005091 f   LIBCMT:wcslen.obj
 0001:000040aa       _wcsncat_s                 100050aa f   LIBCMT:wcsncat_s.obj
 0001:00004178       ___crtCorExitProcess       10005178 f   LIBCMT:crt0dat.obj
 0001:000041ac       ___crtExitProcess          100051ac f   LIBCMT:crt0dat.obj
 0001:000041c2       ___freeCrtMemory           100051c2 f   LIBCMT:crt0dat.obj
 0001:000042cf       __amsg_exit                100052cf f   LIBCMT:crt0dat.obj
 0001:000042eb       __cexit                    100052eb f   LIBCMT:crt0dat.obj
 0001:000042fa       __cinit                    100052fa f   LIBCMT:crt0dat.obj
 0001:0000437e       __exit                     1000537e f   LIBCMT:crt0dat.obj
 0001:00004392       __init_pointers            10005392 f   LIBCMT:crt0dat.obj
 0001:00004400       __initterm_e               10005400 f   LIBCMT:crt0dat.obj
 0001:00004422       __lockexit                 10005422 f   LIBCMT:crt0dat.obj
 0001:0000442b       __unlockexit               1000542b f   LIBCMT:crt0dat.obj
 0001:00004563       __set_abort_behavior       10005563 f   LIBCMT:abort.obj
 0001:00004582       _abort                     10005582 f   LIBCMT:abort.obj
 0001:000045c5       __set_error_mode           100055c5 f   LIBCMT:errmode.obj
 0001:00004605       __itow_s                   10005605 f   LIBCMT:xtows.obj
 0001:00004721       ___initstdio               10005721 f   LIBCMT:_file.obj
 0001:00004794       ___endstdio                10005794 f   LIBCMT:_file.obj
 0001:000047bb       ___iob_func                100057bb f   LIBCMT:_file.obj
 0001:000047c1       __lock_file                100057c1 f   LIBCMT:_file.obj
 0001:00004800       __lock_file2               10005800 f   LIBCMT:_file.obj
 0001:00004830       __unlock_file              10005830 f   LIBCMT:_file.obj
 0001:0000486a       __unlock_file2             1000586a f   LIBCMT:_file.obj
 0001:00004897       __fflush_nolock            10005897 f   LIBCMT:fflush.obj
 0001:000048dd       __flush                    100058dd f   LIBCMT:fflush.obj
 0001:00004941       __flushall                 10005941 f   LIBCMT:fflush.obj
 0001:0000494a       _fflush                    1000594a f   LIBCMT:fflush.obj
 0001:00004a87       _setvbuf                   10005a87 f   LIBCMT:setvbuf.obj
 0001:00004b8d       _fwprintf                  10005b8d f   LIBCMT:fwprintf.obj
 0001:00004c21       __vswprintf_c_l            10005c21 f   LIBCMT:vswprnc.obj
 0001:00004c49       __vswprintf_helper         10005c49 f   LIBCMT:vswprnc.obj
 0001:00004d44       ___get_sigabrt             10005d44 f   LIBCMT:winsig.obj
 0001:00004d51       __initp_misc_winsig        10005d51 f   LIBCMT:winsig.obj
 0001:00004d6d       _raise                     10005d6d f   LIBCMT:winsig.obj
 0001:00004f62       ___crtMessageBoxW          10005f62 f   LIBCMT:crtmboxw.obj
 0001:00005148       __FF_MSGBANNER             10006148 f   LIBCMT:crt0msg.obj
 0001:00005181       __GET_RTERRMSG             10006181 f   LIBCMT:crt0msg.obj
 0001:000051a5       __NMSG_WRITE               100061a5 f   LIBCMT:crt0msg.obj
 0001:00005362       __msize                    10006362 f   LIBCMT:msize.obj
 0001:00005393       __calloc_crt               10006393 f   LIBCMT:crtheap.obj
 0001:000053db       __malloc_crt               100063db f   LIBCMT:crtheap.obj
 0001:00005422       __realloc_crt              10006422 f   LIBCMT:crtheap.obj
 0001:00005470       __SEH_prolog4              10006470 f   LIBCMT:sehprolg4.obj
 0001:000054b5       __SEH_epilog4              100064b5 f   LIBCMT:sehprolg4.obj
 0001:000054d0       __except_handler4          100064d0 f   LIBCMT:chandler4.obj
 0001:00005664       __initp_misc_purevirt      10006664 f   LIBCMT:inithelp.obj
 0001:00005671       _free                      10006671 f   LIBCMT:free.obj
 0001:000056b0       __CIsqrt                   100066b0 f   LIBCMT:sqrt.obj
 0001:000056c4       _sqrt                      100066c4     LIBCMT:sqrt.obj
 0001:0000576a       __decomp                   1000676a f   LIBCMT:util.obj
 0001:0000583c       __set_exp                  1000683c f   LIBCMT:util.obj
 0001:0000586b       __handle_exc               1000686b f   LIBCMT:fpexcept.obj
 0001:00005a49       __raise_exc                10006a49 f   LIBCMT:fpexcept.obj
 0001:00005a6a       __raise_exc_ex             10006a6a f   LIBCMT:fpexcept.obj
 0001:00005d4f       __set_errno_from_matherr   10006d4f f   LIBCMT:fpexcept.obj
 0001:00005d7c       ___set_fpsr_sse2           10006d7c f   LIBCMT:fpctrl.obj
 0001:00005df2       __clrfp                    10006df2 f   LIBCMT:fpctrl.obj
 0001:00005e03       __ctrlfp                   10006e03 f   LIBCMT:fpctrl.obj
 0001:00005e2e       __set_statfp               10006e2e f   LIBCMT:fpctrl.obj
 0001:00005e86       __statfp                   10006e86 f   LIBCMT:fpctrl.obj
 0001:00005e96       _malloc                    10006e96 f   LIBCMT:malloc.obj
 0001:00005f28       __callnewh                 10006f28 f   LIBCMT:handler.obj
 0001:00005f4e       __initp_heap_handler       10006f4e f   LIBCMT:handler.obj
 0001:00005f5b       ___addlocaleref            10006f5b f   LIBCMT:localref.obj
 0001:00005ff0       ___freetlocinfo            10006ff0 f   LIBCMT:localref.obj
 0001:0000614a       ___removelocaleref         1000714a f   LIBCMT:localref.obj
 0001:000061ea       ___updatetlocinfo          100071ea f   LIBCMT:localref.obj
 0001:0000626a       __updatetlocinfoEx_nolock  1000726a f   LIBCMT:localref.obj
 0001:000062b5       ___initmbctable            100072b5 f   LIBCMT:mbctype.obj
 0001:0000656c       ___updatetmbcinfo          1000756c f   LIBCMT:mbctype.obj
 0001:00006612       __setmbcp                  10007612 f   LIBCMT:mbctype.obj
 0001:000067ba       __setmbcp_nolock           100077ba f   LIBCMT:mbctype.obj
 0001:000069a5       __tolower_l                100079a5 f   LIBCMT:tolower.obj
 0001:00006ae8       _tolower                   10007ae8 f   LIBCMT:tolower.obj
 0001:00006b14       __freefls@4                10007b14 f   LIBCMT:tidtable.obj
 0001:00006c49       __freeptd                  10007c49 f   LIBCMT:tidtable.obj
 0001:00006c7f       __getptd                   10007c7f f   LIBCMT:tidtable.obj
 0001:00006c97       __getptd_noexit            10007c97 f   LIBCMT:tidtable.obj
 0001:00006d06       __initptd                  10007d06 f   LIBCMT:tidtable.obj
 0001:00006db9       __mtinit                   10007db9 f   LIBCMT:tidtable.obj
 0001:00006e2f       __mtterm                   10007e2f f   LIBCMT:tidtable.obj
 0001:00006e4c       ___doserrno                10007e4c f   LIBCMT:dosmap.obj
 0001:00006e5f       __dosmaperr                10007e5f f   LIBCMT:dosmap.obj
 0001:00006e80       __errno                    10007e80 f   LIBCMT:dosmap.obj
 0001:00006e93       __get_errno_from_oserr     10007e93 f   LIBCMT:dosmap.obj
 0001:00006ed4       __locterm                  10007ed4 f   LIBCMT:wsetloca.obj
 0001:00006f26       __XcptFilter               10007f26 f   LIBCMT:winxfltr.obj
 0001:00007081       ___CppXcptFilter           10008081 f   LIBCMT:winxfltr.obj
 0001:0000709f       __heap_init                1000809f f   LIBCMT:heapinit.obj
 0001:000070b4       __heap_term                100080b4 f   LIBCMT:heapinit.obj
 0001:000070bc       __ioinit                   100080bc f   LIBCMT:ioinit.obj
 0001:00007370       __ioterm                   10008370 f   LIBCMT:ioinit.obj
 0001:000073c2       __setargv                  100083c2 f   LIBCMT:stdargv.obj
 0001:000075f1       __setenvp                  100085f1 f   LIBCMT:stdenvp.obj
 0001:000076d2       ___security_init_cookie    100086d2 f   LIBCMT:gs_support.obj
 0001:0000776e       _DllMain@12                1000876e f   LIBCMT:dllmain.obj
 0001:00007774       ___crtGetEnvironmentStringsA 10008774 f   LIBCMT:a_env.obj
 0001:00007801       ___crtFlsAlloc             10008801 f   LIBCMT:winapisupp.obj
 0001:0000781f       ___crtFlsFree              1000881f f   LIBCMT:winapisupp.obj
 0001:0000783e       ___crtFlsGetValue          1000883e f   LIBCMT:winapisupp.obj
 0001:0000785d       ___crtFlsSetValue          1000885d f   LIBCMT:winapisupp.obj
 0001:0000787f       ___crtInitializeCriticalSectionEx 1000887f f   LIBCMT:winapisupp.obj
 0001:000078ad       ___crtIsPackagedApp        100088ad f   LIBCMT:winapisupp.obj
 0001:000078ed       ___crtLoadWinApiPointers   100088ed f   LIBCMT:winapisupp.obj
 0001:00007b78       ___crtSleep                10008b78 f   LIBCMT:winapisupp.obj
 0001:00007b86       ___crtTerminateProcess     10008b86 f   LIBCMT:winapisupp.obj
 0001:00007b9b       ___crtUnhandledException   10008b9b f   LIBCMT:winapisupp.obj
 0001:00007bb1       __RTC_Initialize           10008bb1 f   LIBCMT:initsect.obj
 0001:00007bd1       __RTC_Terminate            10008bd1 f   LIBCMT:initsect.obj
 0001:00007c00       __CallSettingFrame@12      10008c00 f   LIBCMT:lowhelpr.obj
 0001:00007c27       __NLG_Return               10008c27     LIBCMT:lowhelpr.obj
 0001:00007c4c       ?terminate@@YAXXZ          10008c4c f   LIBCMT:hooks.obj
 0001:00007c80       __initp_eh_hooks           10008c80 f   LIBCMT:hooks.obj
 0001:00007c91       ___DestructExceptionObject 10008c91 f   LIBCMT:frame.obj
 0001:00007d20       _strcmp                    10008d20 f   LIBCMT:strcmp.obj
 0001:00007dac       ?_Type_info_dtor@type_info@@CAXPAV1@@Z 10008dac f   LIBCMT:typname.obj
 0001:00007e1d       __cfltcvt                  10008e1d f   LIBCMT:cvt.obj
 0001:00007e3e       __cfltcvt_l                10008e3e f   LIBCMT:cvt.obj
 0001:00007ec4       __cftoa_l                  10008ec4 f   LIBCMT:cvt.obj
 0001:00008220       __cftoe                    10009220 f   LIBCMT:cvt.obj
 0001:0000838f       __cftoe_l                  1000938f f   LIBCMT:cvt.obj
 0001:00008549       __cftof_l                  10009549 f   LIBCMT:cvt.obj
 0001:0000860a       __cftog_l                  1000960a f   LIBCMT:cvt.obj
 0001:00008709       __cropzeros                10009709 f   LIBCMT:cvt.obj
 0001:0000871a       __cropzeros_l              1000971a f   LIBCMT:cvt.obj
 0001:0000879a       __fassign                  1000979a f   LIBCMT:cvt.obj
 0001:000087b2       __fassign_l                100097b2 f   LIBCMT:cvt.obj
 0001:000087f4       __forcdecpt                100097f4 f   LIBCMT:cvt.obj
 0001:00008805       __forcdecpt_l              10009805 f   LIBCMT:cvt.obj
 0001:00008879       __positive                 10009879 f   LIBCMT:cvt.obj
 0001:000088bb       __setdefaultprecision      100098bb f   LIBCMT:fp8.obj
 0001:000088e2       __initp_misc_cfltcvt_tab   100098e2 f   LIBCMT:cmiscdat.obj
 0001:00008901       _strcpy_s                  10009901 f   LIBCMT:strcpy_s.obj
 0001:00008956       __crt_debugger_hook        10009956 f   LIBCMT:dbghook.obj
 0001:00008960       _memset                    10009960 f   LIBCMT:memset.obj
 0001:000089f0       __lock                     100099f0 f   LIBCMT:mlock.obj
 0001:00008a24       __mtdeletelocks            10009a24 f   LIBCMT:mlock.obj
 0001:00008a78       __mtinitlocknum            10009a78 f   LIBCMT:mlock.obj
 0001:00008b21       __mtinitlocks              10009b21 f   LIBCMT:mlock.obj
 0001:00008b5a       __unlock                   10009b5a f   LIBCMT:mlock.obj
 0001:00008b70       __FindPESection            10009b70 f   LIBCMT:pesect.obj
 0001:00008bc0       __IsNonwritableInCurrentImage 10009bc0 f   LIBCMT:pesect.obj
 0001:00008c80       __ValidateImageBase        10009c80 f   LIBCMT:pesect.obj
 0001:00008cb1       __initp_misc_rand_s        10009cb1 f   LIBCMT:rand_s.obj
 0001:00008cbe       __ftbuf                    10009cbe f   LIBCMT:_sftbuf.obj
 0001:00008cef       __stbuf                    10009cef f   LIBCMT:_sftbuf.obj
 0001:00008da0       __aulldvrm                 10009da0 f   LIBCMT:ulldvrm.obj
 0001:00008e35       __fcloseall                10009e35 f   LIBCMT:closeall.obj
 0001:00008ed2       __fileno                   10009ed2 f   LIBCMT:fileno.obj
 0001:00008ef6       __commit                   10009ef6 f   LIBCMT:commit.obj
 0001:00008fdf       __write                    10009fdf f   LIBCMT:write.obj
 0001:000090ce       __write_nolock             1000a0ce f   LIBCMT:write.obj
 0001:00009933       __freebuf                  1000a933 f   LIBCMT:_freebuf.obj
 0001:00009963       __woutput_l                1000a963 f   LIBCMT:woutput.obj
 0001:0000a642       __flsbuf                   1000b642 f   LIBCMT:_flsbuf.obj
 0001:0000a791       _wcsncpy_s                 1000b791 f   LIBCMT:wcsncpy_s.obj
 0001:0000a84f       _realloc                   1000b84f f   LIBCMT:realloc.obj
 0001:0000a8fa       __calloc_impl              1000b8fa f   LIBCMT:calloc_impl.obj
 0001:0000a980       __local_unwind4            1000b980 f   LIBCMT:exsup4.obj
 0001:0000aa56       __seh_longjmp_unwind4@4    1000ba56 f   LIBCMT:exsup4.obj
 0001:0000aa72       @_EH4_CallFilterFunc@8     1000ba72 f   LIBCMT:exsup4.obj
 0001:0000aa89       @_EH4_TransferToHandler@8  1000ba89 f   LIBCMT:exsup4.obj
 0001:0000aaa2       @_EH4_GlobalUnwind2@8      1000baa2 f   LIBCMT:exsup4.obj
 0001:0000aabb       @_EH4_LocalUnwind@16       1000babb f   LIBCMT:exsup4.obj
 0001:0000aad2       __freea                    1000bad2 f i LIBCMT:a_loc.obj
 0001:0000aaf0       _GetTableIndexFromLocaleName 1000baf0 f   LIBCMT:winapinls.obj
 0001:0000ab3e       ___crtDownlevelLocaleNameToLCID 1000bb3e f   LIBCMT:winapinls.obj
 0001:0000ab68       ___crtLCMapStringEx        1000bb68 f   LIBCMT:winapinls.obj
 0001:0000abb4       ___wcsnicmp_ascii          1000bbb4 f   LIBCMT:winapinls.obj
 0001:0000ac30       __trandisp1                1000bc30 f   LIBCMT:87disp.obj
 0001:0000ac97       __trandisp2                1000bc97 f   LIBCMT:87disp.obj
 0001:0000ad23       __rttospopde               1000bd23     LIBCMT:87disp.obj
 0001:0000ad28       __rttospop                 1000bd28     LIBCMT:87disp.obj
 0001:0000ad2a       __rtnospop                 1000bd2a     LIBCMT:87disp.obj
 0001:0000ad2c       __rttosnpop                1000bd2c     LIBCMT:87disp.obj
 0001:0000ad2d       __rtnospopde               1000bd2d     LIBCMT:87disp.obj
 0001:0000ad34       __rtzeropop                1000bd34     LIBCMT:87disp.obj
 0001:0000ad36       __rtzeronpop               1000bd36     LIBCMT:87disp.obj
 0001:0000ad3b       __rtonepop                 1000bd3b     LIBCMT:87disp.obj
 0001:0000ad3d       __rtonenpop                1000bd3d     LIBCMT:87disp.obj
 0001:0000ad42       __tosnan1                  1000bd42     LIBCMT:87disp.obj
 0001:0000ad6d       __nosnan2                  1000bd6d     LIBCMT:87disp.obj
 0001:0000ad6f       __tosnan2                  1000bd6f     LIBCMT:87disp.obj
 0001:0000ad97       __nan2                     1000bd97     LIBCMT:87disp.obj
 0001:0000add6       __rtindfpop                1000bdd6     LIBCMT:87disp.obj
 0001:0000add8       __rtindfnpop               1000bdd8     LIBCMT:87disp.obj
 0001:0000ade9       __rttosnpopde              1000bde9     LIBCMT:87disp.obj
 0001:0000adf3       __rtchsifneg               1000bdf3     LIBCMT:87disp.obj
 0001:0000ae00       __startTwoArgErrorHandling 1000be00 f   LIBCMT:genexcep.obj
 0001:0000ae17       __startOneArgErrorHandling 1000be17 f   LIBCMT:genexcep.obj
 0001:0000ae60       __twoToTOS                 1000be60 f   LIBCMT:common.obj
 0001:0000ae75       __load_CW                  1000be75 f   LIBCMT:common.obj
 0001:0000ae8c       __convertTOStoQNaN         1000be8c f   LIBCMT:common.obj
 0001:0000aea5       __fload_withFB             1000bea5 f   LIBCMT:common.obj
 0001:0000aee8       __checkTOS_withFB          1000bee8 f   LIBCMT:common.obj
 0001:0000aefe       __fast_exit                1000befe f   LIBCMT:common.obj
 0001:0000af0b       __math_exit                1000bf0b f   LIBCMT:common.obj
 0001:0000af35       __check_overflow_exit      1000bf35 f   LIBCMT:common.obj
 0001:0000af49       __check_range_exit         1000bf49 f   LIBCMT:common.obj
 0001:0000afec       __matherr                  1000bfec f   LIBCMT:matherr.obj
 0001:0000afef       ___free_lconv_mon          1000bfef f   LIBCMT:initmon.obj
 0001:0000b0eb       ___free_lconv_num          1000c0eb f   LIBCMT:initnum.obj
 0001:0000b152       ___free_lc_time            1000c152 f   LIBCMT:inittime.obj
 0001:0000b6d6       ___crtLCMapStringA         1000c6d6 f   LIBCMT:a_map.obj
 0001:0000b814       ___crtGetStringTypeA       1000c814 f   LIBCMT:a_str.obj
 0001:0000b854       __isctype_l                1000c854 f   LIBCMT:isctype.obj
 0001:0000b905       __isleadbyte_l             1000c905 f i LIBCMT:_wctype.obj
 0001:0000b93f       _isleadbyte                1000c93f f i LIBCMT:_wctype.obj
 0001:0000b9aa       __ismbblead                1000c9aa f   LIBCMT:ismbbyte.obj
 0001:0000b9c0       __global_unwind2           1000c9c0 f   LIBCMT:exsup.obj
 0001:0000ba25       __local_unwind2            1000ca25 f   LIBCMT:exsup.obj
 0001:0000baa9       __abnormal_termination     1000caa9 f   LIBCMT:exsup.obj
 0001:0000bacc       __NLG_Notify1              1000cacc f   LIBCMT:exsup.obj
 0001:0000bad5       __NLG_Notify               1000cad5 f   LIBCMT:exsup.obj
 0001:0000baec       __NLG_Dispatch             1000caec     LIBCMT:exsup.obj
 0001:0000baec       __NLG_Dispatch2            1000caec     LIBCMT:exsup.obj
 0001:0000baf4       __NLG_Call                 1000caf4 f   LIBCMT:exsup.obj
 0001:0000baf6       __NLG_Return2              1000caf6     LIBCMT:exsup.obj
 0001:0000baf7       __isdigit_l                1000caf7 f i LIBCMT:_ctype.obj
 0001:0000bb49       _isdigit                   1000cb49 f i LIBCMT:_ctype.obj
 0001:0000bb80       _strrchr                   1000cb80 f   LIBCMT:strrchr.obj
 0001:0000bcb7       __fptostr                  1000ccb7 f   LIBCMT:_fptostr.obj
 0001:0000bd67       ___crt_atoflt_l            1000cd67 f   LIBCMT:atodbl.obj
 0001:0000be0b       __atodbl_l                 1000ce0b f   LIBCMT:atodbl.obj
 0001:0000be99       __atoflt_l                 1000ce99 f   LIBCMT:atodbl.obj
 0001:0000beb1       ___dtold                   1000ceb1 f   LIBCMT:cfout.obj
 0001:0000bf79       __fltout2                  1000cf79 f   LIBCMT:cfout.obj
 0001:0000c010       __alldvrm                  1000d010 f   LIBCMT:lldvrm.obj
 0001:0000c0f0       __aullshr                  1000d0f0 f   LIBCMT:ullshr.obj
 0001:0000c10f       __controlfp_s              1000d10f f   LIBCMT:contrlfp.obj
 0001:0000c16c       __fptrap                   1000d16c f   LIBCMT:crt0fp.obj
 0001:0000c175       __VEC_memset               1000d175 f   LIBCMT:p4_memset.obj
 0001:0000c23d       __isatty                   1000d23d f   LIBCMT:isatty.obj
 0001:0000c291       __fclose_nolock            1000d291 f   LIBCMT:fclose.obj
 0001:0000c2fd       _fclose                    1000d2fd f   LIBCMT:fclose.obj
 0001:0000c374       ___lock_fhandle            1000d374 f   LIBCMT:osfinfo.obj
 0001:0000c402       __free_osfhnd              1000d402 f   LIBCMT:osfinfo.obj
 0001:0000c488       __get_osfhandle            1000d488 f   LIBCMT:osfinfo.obj
 0001:0000c4ef       __unlock_fhandle           1000d4ef f   LIBCMT:osfinfo.obj
 0001:0000c515       __lseeki64                 1000d515 f   LIBCMT:lseeki64.obj
 0001:0000c611       __lseeki64_nolock          1000d611 f   LIBCMT:lseeki64.obj
 0001:0000c684       __mbtowc_l                 1000d684 f   LIBCMT:mbtowc.obj
 0001:0000c779       _mbtowc                    1000d779 f   LIBCMT:mbtowc.obj
 0001:0000c791       __putwch_nolock            1000d791 f   LIBCMT:putwch.obj
 0001:0000c7e0       __alloca_probe             1000d7e0 f   LIBCMT:chkstk.obj
 0001:0000c7e0       __chkstk                   1000d7e0 f   LIBCMT:chkstk.obj
 0001:0000c80b       __get_printf_count_output  1000d80b f   LIBCMT:printf.obj
 0001:0000c820       __fputwc_nolock            1000d820 f   LIBCMT:fputwc.obj
 0001:0000c9a6       __getbuf                   1000d9a6 f   LIBCMT:_getbuf.obj
 0001:0000c9f0       __alloca_probe_16          1000d9f0 f   LIBCMT:alloca16.obj
 0001:0000ca06       __alloca_probe_8           1000da06     LIBCMT:alloca16.obj
 0001:0000ca1c       __87except                 1000da1c f   LIBCMT:87except.obj
 0001:0000cb25       __ld12tod                  1000db25 f   LIBCMT:intrncvt.obj
 0001:0000d097       __ld12tof                  1000e097 f   LIBCMT:intrncvt.obj
 0001:0000d609       ___strgtold12_l            1000e609 f   LIBCMT:strgtold.obj
 0001:0000ddb1       _$I10_OUTPUT               1000edb1 f   LIBCMT:x10fout.obj
 0001:0000e82e       __control87                1000f82e f i LIBCMT:ieee87.obj
 0001:0000ebc7       __close                    1000fbc7 f   LIBCMT:close.obj
 0001:0000eca2       __close_nolock             1000fca2 f   LIBCMT:close.obj
 0001:0000ed3c       ___termconout              1000fd3c f   LIBCMT:initcon.obj
 0001:0000ed53       ___initconout              1000fd53 f   LIBCMT:initcon.obj
 0001:0000ed72       __wctomb_s_l               1000fd72 f   LIBCMT:wctomb.obj
 0001:0000ee96       _wctomb_s                  1000fe96 f   LIBCMT:wctomb.obj
 0001:0000eeb1       __flswbuf                  1000feb1 f   LIBCMT:_flswbuf.obj
 0001:0000f013       ___mtold12                 10010013 f   LIBCMT:mantold.obj
 0001:0000f200       __allmul                   10010200 f   LIBCMT:llmul.obj
 0001:0000f240       _RtlUnwind@16              10010240 f   kernel32:KERNEL32.dll
 0001:0000f246       _IsProcessorFeaturePresent@4 10010246 f   kernel32:KERNEL32.dll
 0001:0000f24c       ___delayLoadHelper2@8      1001024c f   DelayImp:delayhlp.obj
 0002:00000000       __imp__GetModuleHandleA@4  10011000     kernel32:KERNEL32.dll
 0002:00000004       __imp__GetStdHandle@4      10011004     kernel32:KERNEL32.dll
 0002:00000008       __imp__GetFileType@4       10011008     kernel32:KERNEL32.dll
 0002:0000000c       __imp__GetModuleFileNameW@12 1001100c     kernel32:KERNEL32.dll
 0002:00000010       __imp__GetModuleHandleExW@12 10011010     kernel32:KERNEL32.dll
 0002:00000014       __imp__WriteConsoleW@20    10011014     kernel32:KERNEL32.dll
 0002:00000018       __imp__EncodePointer@4     10011018     kernel32:KERNEL32.dll
 0002:0000001c       __imp__DecodePointer@4     1001101c     kernel32:KERNEL32.dll
 0002:00000020       __imp__GetCommandLineA@0   10011020     kernel32:KERNEL32.dll
 0002:00000024       __imp__GetCurrentThreadId@0 10011024     kernel32:KERNEL32.dll
 0002:00000028       __imp__RaiseException@16   10011028     kernel32:KERNEL32.dll
 0002:0000002c       __imp__RtlUnwind@16        1001102c     kernel32:KERNEL32.dll
 0002:00000030       __imp__IsDebuggerPresent@0 10011030     kernel32:KERNEL32.dll
 0002:00000034       __imp__IsProcessorFeaturePresent@4 10011034     kernel32:KERNEL32.dll
 0002:00000038       __imp__GetLastError@0      10011038     kernel32:KERNEL32.dll
 0002:0000003c       __imp__ExitProcess@4       1001103c     kernel32:KERNEL32.dll
 0002:00000040       __imp__GetProcAddress@8    10011040     kernel32:KERNEL32.dll
 0002:00000044       __imp__MultiByteToWideChar@24 10011044     kernel32:KERNEL32.dll
 0002:00000048       __imp__WideCharToMultiByte@32 10011048     kernel32:KERNEL32.dll
 0002:0000004c       __imp__EnterCriticalSection@4 1001104c     kernel32:KERNEL32.dll
 0002:00000050       __imp__LeaveCriticalSection@4 10011050     kernel32:KERNEL32.dll
 0002:00000054       __imp__OutputDebugStringW@4 10011054     kernel32:KERNEL32.dll
 0002:00000058       __imp__LoadLibraryExW@12   10011058     kernel32:KERNEL32.dll
 0002:0000005c       __imp__WriteFile@20        1001105c     kernel32:KERNEL32.dll
 0002:00000060       __imp__HeapSize@12         10011060     kernel32:KERNEL32.dll
 0002:00000064       __imp__HeapFree@12         10011064     kernel32:KERNEL32.dll
 0002:00000068       __imp__HeapAlloc@12        10011068     kernel32:KERNEL32.dll
 0002:0000006c       __imp__IsValidCodePage@4   1001106c     kernel32:KERNEL32.dll
 0002:00000070       __imp__GetACP@0            10011070     kernel32:KERNEL32.dll
 0002:00000074       __imp__GetOEMCP@0          10011074     kernel32:KERNEL32.dll
 0002:00000078       __imp__GetCPInfo@8         10011078     kernel32:KERNEL32.dll
 0002:0000007c       __imp__SetLastError@4      1001107c     kernel32:KERNEL32.dll
 0002:00000080       __imp__GetProcessHeap@0    10011080     kernel32:KERNEL32.dll
 0002:00000084       __imp__DeleteCriticalSection@4 10011084     kernel32:KERNEL32.dll
 0002:00000088       __imp__GetStartupInfoW@4   10011088     kernel32:KERNEL32.dll
 0002:0000008c       __imp__GetModuleFileNameA@12 1001108c     kernel32:KERNEL32.dll
 0002:00000090       __imp__QueryPerformanceCounter@4 10011090     kernel32:KERNEL32.dll
 0002:00000094       __imp__GetCurrentProcessId@0 10011094     kernel32:KERNEL32.dll
 0002:00000098       __imp__GetSystemTimeAsFileTime@4 10011098     kernel32:KERNEL32.dll
 0002:0000009c       __imp__GetEnvironmentStringsW@0 1001109c     kernel32:KERNEL32.dll
 0002:000000a0       __imp__FreeEnvironmentStringsW@4 100110a0     kernel32:KERNEL32.dll
 0002:000000a4       __imp__UnhandledExceptionFilter@4 100110a4     kernel32:KERNEL32.dll
 0002:000000a8       __imp__SetUnhandledExceptionFilter@4 100110a8     kernel32:KERNEL32.dll
 0002:000000ac       __imp__InitializeCriticalSectionAndSpinCount@8 100110ac     kernel32:KERNEL32.dll
 0002:000000b0       __imp__Sleep@4             100110b0     kernel32:KERNEL32.dll
 0002:000000b4       __imp__GetCurrentProcess@0 100110b4     kernel32:KERNEL32.dll
 0002:000000b8       __imp__TerminateProcess@8  100110b8     kernel32:KERNEL32.dll
 0002:000000bc       __imp__TlsAlloc@0          100110bc     kernel32:KERNEL32.dll
 0002:000000c0       __imp__TlsGetValue@4       100110c0     kernel32:KERNEL32.dll
 0002:000000c4       __imp__TlsSetValue@8       100110c4     kernel32:KERNEL32.dll
 0002:000000c8       __imp__TlsFree@4           100110c8     kernel32:KERNEL32.dll
 0002:000000cc       __imp__GetModuleHandleW@4  100110cc     kernel32:KERNEL32.dll
 0002:000000d0       __imp__FreeLibrary@4       100110d0     kernel32:KERNEL32.dll
 0002:000000d4       __imp__FlushFileBuffers@4  100110d4     kernel32:KERNEL32.dll
 0002:000000d8       __imp__GetConsoleCP@0      100110d8     kernel32:KERNEL32.dll
 0002:000000dc       __imp__GetConsoleMode@8    100110dc     kernel32:KERNEL32.dll
 0002:000000e0       __imp__HeapReAlloc@16      100110e0     kernel32:KERNEL32.dll
 0002:000000e4       __imp__LCMapStringW@24     100110e4     kernel32:KERNEL32.dll
 0002:000000e8       __imp__GetStringTypeW@16   100110e8     kernel32:KERNEL32.dll
 0002:000000ec       __imp__SetStdHandle@8      100110ec     kernel32:KERNEL32.dll
 0002:000000f0       __imp__SetFilePointerEx@20 100110f0     kernel32:KERNEL32.dll
 0002:000000f4       __imp__CloseHandle@4       100110f4     kernel32:KERNEL32.dll
 0002:000000f8       __imp__CreateFileW@28      100110f8     kernel32:KERNEL32.dll
 0002:000000fc       __imp__LoadLibraryExA@12   100110fc     kernel32:KERNEL32.dll
 0002:00000100       \177KERNEL32_NULL_THUNK_DATA 10011100     kernel32:KERNEL32.dll
 0002:00000104       ___xc_a                    10011104     LIBCMT:crt0init.obj
 0002:00000110       __register_bufferutil_     10011110     bufferutil.obj
 0002:00000114       ___xc_z                    10011114     LIBCMT:crt0init.obj
 0002:00000118       ___xi_a                    10011118     LIBCMT:crt0init.obj
 0002:0000012c       ___xi_z                    1001112c     LIBCMT:crt0init.obj
 0002:00000130       ___xp_a                    10011130     LIBCMT:crt0init.obj
 0002:00000140       ___xp_z                    10011140     LIBCMT:crt0init.obj
 0002:00000144       ___xt_a                    10011144     LIBCMT:crt0init.obj
 0002:00000148       ___xt_z                    10011148     LIBCMT:crt0init.obj
 0002:00000190       __sz_node_exe              10011190     node:node.exe
 0002:00000670       ??_C@_0BC@CIJDGCDI@permission?5denied?$AA@ 10011670     libcpmt:syserror.obj
 0002:00000684       ??_C@_0M@MIDIAGJP@file?5exists?$AA@ 10011684     libcpmt:syserror.obj
 0002:00000690       ??_C@_0P@FDINDDOK@no?5such?5device?$AA@ 10011690     libcpmt:syserror.obj
 0002:000006a0       ??_C@_0BC@EJHOMAAK@filename?5too?5long?$AA@ 100116a0     libcpmt:syserror.obj
 0002:000006b4       ??_C@_0BI@NGCEHDD@device?5or?5resource?5busy?$AA@ 100116b4     libcpmt:syserror.obj
 0002:000006cc       ??_C@_08GLNPIFBN@io?5error?$AA@ 100116cc     libcpmt:syserror.obj
 0002:000006d8       ??_C@_0BE@JIDOCPHM@directory?5not?5empty?$AA@ 100116d8     libcpmt:syserror.obj
 0002:000006ec       ??_C@_0BB@FCMFBGOM@invalid?5argument?$AA@ 100116ec     libcpmt:syserror.obj
 0002:00000700       ??_C@_0BD@IJDJKDEA@no?5space?5on?5device?$AA@ 10011700     libcpmt:syserror.obj
 0002:00000714       ??_C@_0BK@NDOCBPGE@no?5such?5file?5or?5directory?$AA@ 10011714     libcpmt:syserror.obj
 0002:00000730       ??_C@_0BH@KEFGLDAF@function?5not?5supported?$AA@ 10011730     libcpmt:syserror.obj
 0002:00000748       ??_C@_0BC@NJECKMKE@no?5lock?5available?$AA@ 10011748     libcpmt:syserror.obj
 0002:0000075c       ??_C@_0BC@ENOOLCNF@not?5enough?5memory?$AA@ 1001175c     libcpmt:syserror.obj
 0002:00000770       ??_C@_0BP@LKNGHENJ@resource?5unavailable?5try?5again?$AA@ 10011770     libcpmt:syserror.obj
 0002:00000790       ??_C@_0BC@PPHBOELF@cross?5device?5link?$AA@ 10011790     libcpmt:syserror.obj
 0002:000007a4       ??_C@_0BD@MOLBPMEA@operation?5canceled?$AA@ 100117a4     libcpmt:syserror.obj
 0002:000007b8       ??_C@_0BE@GHAFMPAH@too?5many?5files?5open?$AA@ 100117b8     libcpmt:syserror.obj
 0002:000007cc       ??_C@_0BC@FNODOBAE@permission_denied?$AA@ 100117cc     libcpmt:syserror.obj
 0002:000007e0       ??_C@_0P@LNDJPBFK@address_in_use?$AA@ 100117e0     libcpmt:syserror.obj
 0002:000007f0       ??_C@_0BG@IPMGOJF@address_not_available?$AA@ 100117f0     libcpmt:syserror.obj
 0002:00000808       ??_C@_0BN@LCBDHODA@address_family_not_supported?$AA@ 10011808     libcpmt:syserror.obj
 0002:00000828       ??_C@_0BP@FOJJHMCC@connection_already_in_progress?$AA@ 10011828     libcpmt:syserror.obj
 0002:00000848       ??_C@_0BE@DLHHIBGN@bad_file_descriptor?$AA@ 10011848     libcpmt:syserror.obj
 0002:0000085c       ??_C@_0BD@OJMJDIGI@connection_aborted?$AA@ 1001185c     libcpmt:syserror.obj
 0002:00000870       ??_C@_0BD@NGKCIFEP@connection_refused?$AA@ 10011870     libcpmt:syserror.obj
 0002:00000884       ??_C@_0BB@JOANDNCK@connection_reset?$AA@ 10011884     libcpmt:syserror.obj
 0002:00000898       ??_C@_0BN@JLJNLKLK@destination_address_required?$AA@ 10011898     libcpmt:syserror.obj
 0002:000008b8       ??_C@_0M@IJGMGFGP@bad_address?$AA@ 100118b8     libcpmt:syserror.obj
 0002:000008c4       ??_C@_0BB@KKNHPPIN@host_unreachable?$AA@ 100118c4     libcpmt:syserror.obj
 0002:000008d8       ??_C@_0BG@DJGBJIIK@operation_in_progress?$AA@ 100118d8     libcpmt:syserror.obj
 0002:000008f0       ??_C@_0M@EGEKIIMP@interrupted?$AA@ 100118f0     libcpmt:syserror.obj
 0002:000008fc       ??_C@_0BB@FFIHMIPJ@invalid_argument?$AA@ 100118fc     libcpmt:syserror.obj
 0002:00000910       ??_C@_0BC@FIFLCHLO@already_connected?$AA@ 10011910     libcpmt:syserror.obj
 0002:00000924       ??_C@_0BE@GJJJJDDA@too_many_files_open?$AA@ 10011924     libcpmt:syserror.obj
 0002:00000938       ??_C@_0N@HPMLKHPL@message_size?$AA@ 10011938     libcpmt:syserror.obj
 0002:00000948       ??_C@_0BC@LEEIKBAL@filename_too_long?$AA@ 10011948     libcpmt:syserror.obj
 0002:0000095c       ??_C@_0N@FCPALPJK@network_down?$AA@ 1001195c     libcpmt:syserror.obj
 0002:0000096c       ??_C@_0O@EHNDLHIG@network_reset?$AA@ 1001196c     libcpmt:syserror.obj
 0002:0000097c       ??_C@_0BE@JFNJIDNF@network_unreachable?$AA@ 1001197c     libcpmt:syserror.obj
 0002:00000990       ??_C@_0BA@FDIJKJCL@no_buffer_space?$AA@ 10011990     libcpmt:syserror.obj
 0002:000009a0       ??_C@_0BD@JHIHCGKP@no_protocol_option?$AA@ 100119a0     libcpmt:syserror.obj
 0002:000009b4       ??_C@_0O@GBCLHHD@not_connected?$AA@ 100119b4     libcpmt:syserror.obj
 0002:000009c4       ??_C@_0N@IMHKKLEM@not_a_socket?$AA@ 100119c4     libcpmt:syserror.obj
 0002:000009d4       ??_C@_0BI@ICEIDKLJ@operation_not_supported?$AA@ 100119d4     libcpmt:syserror.obj
 0002:000009ec       ??_C@_0BH@KAPBAIJF@protocol_not_supported?$AA@ 100119ec     libcpmt:syserror.obj
 0002:00000a04       ??_C@_0BE@GAOJJFPC@wrong_protocol_type?$AA@ 10011a04     libcpmt:syserror.obj
 0002:00000a18       ??_C@_09NCHNLHPG@timed_out?$AA@ 10011a18     libcpmt:syserror.obj
 0002:00000a24       ??_C@_0BG@GDGHKFDH@operation_would_block?$AA@ 10011a24     libcpmt:syserror.obj
 0002:00000a3c       ??_C@_0BN@LKKBCCDB@address?5family?5not?5supported?$AA@ 10011a3c     libcpmt:syserror.obj
 0002:00000a5c       ??_C@_0P@LDMLAFHI@address?5in?5use?$AA@ 10011a5c     libcpmt:syserror.obj
 0002:00000a6c       ??_C@_0BG@DHPCNBJB@address?5not?5available?$AA@ 10011a6c     libcpmt:syserror.obj
 0002:00000a84       ??_C@_0BC@DFIBIBIL@already?5connected?$AA@ 10011a84     libcpmt:syserror.obj
 0002:00000a98       ??_C@_0BH@CAKOHOMI@argument?5list?5too?5long?$AA@ 10011a98     libcpmt:syserror.obj
 0002:00000ab0       ??_C@_0BH@CGIMPKIM@argument?5out?5of?5domain?$AA@ 10011ab0     libcpmt:syserror.obj
 0002:00000ac8       ??_C@_0M@KGHGGJGL@bad?5address?$AA@ 10011ac8     libcpmt:syserror.obj
 0002:00000ad4       ??_C@_0BE@MPJPGCEO@bad?5file?5descriptor?$AA@ 10011ad4     libcpmt:syserror.obj
 0002:00000ae8       ??_C@_0M@PMMIEFCP@bad?5message?$AA@ 10011ae8     libcpmt:syserror.obj
 0002:00000af4       ??_C@_0M@KPHOFDBE@broken?5pipe?$AA@ 10011af4     libcpmt:syserror.obj
 0002:00000b00       ??_C@_0BD@MGNDDEGM@connection?5aborted?$AA@ 10011b00     libcpmt:syserror.obj
 0002:00000b14       ??_C@_0BP@KAIHPOGN@connection?5already?5in?5progress?$AA@ 10011b14     libcpmt:syserror.obj
 0002:00000b34       ??_C@_0BD@PJLIIJEL@connection?5refused?$AA@ 10011b34     libcpmt:syserror.obj
 0002:00000b48       ??_C@_0BB@IECNJNOI@connection?5reset?$AA@ 10011b48     libcpmt:syserror.obj
 0002:00000b5c       ??_C@_0BN@KDMIFEIP@destination?5address?5required?$AA@ 10011b5c     libcpmt:syserror.obj
 0002:00000b7c       ??_C@_0BI@BNCLIGPB@executable?5format?5error?$AA@ 10011b7c     libcpmt:syserror.obj
 0002:00000b94       ??_C@_0P@DNAJLBJK@file?5too?5large?$AA@ 10011b94     libcpmt:syserror.obj
 0002:00000ba4       ??_C@_0BB@DHFDFGDM@host?5unreachable?$AA@ 10011ba4     libcpmt:syserror.obj
 0002:00000bb8       ??_C@_0BD@JPHBMONG@identifier?5removed?$AA@ 10011bb8     libcpmt:syserror.obj
 0002:00000bcc       ??_C@_0BG@CDNPAGJK@illegal?5byte?5sequence?$AA@ 10011bcc     libcpmt:syserror.obj
 0002:00000be4       ??_C@_0CD@BNPLBMNA@inappropriate?5io?5control?5operati@ 10011be4     libcpmt:syserror.obj
 0002:00000c08       ??_C@_0N@OHAFKDEK@invalid?5seek?$AA@ 10011c08     libcpmt:syserror.obj
 0002:00000c18       ??_C@_0P@FLLDBIDK@is?5a?5directory?$AA@ 10011c18     libcpmt:syserror.obj
 0002:00000c28       ??_C@_0N@IFLPBIOP@message?5size?$AA@ 10011c28     libcpmt:syserror.obj
 0002:00000c38       ??_C@_0N@KIIEAAIO@network?5down?$AA@ 10011c38     libcpmt:syserror.obj
 0002:00000c48       ??_C@_0O@FNPDBHEE@network?5reset?$AA@ 10011c48     libcpmt:syserror.obj
 0002:00000c58       ??_C@_0BE@IFNCKGE@network?5unreachable?$AA@ 10011c58     libcpmt:syserror.obj
 0002:00000c6c       ??_C@_0BA@PFFCAOFK@no?5buffer?5space?$AA@ 10011c6c     libcpmt:syserror.obj
 0002:00000c7c       ??_C@_0BB@IEPBLJHK@no?5child?5process?$AA@ 10011c7c     libcpmt:syserror.obj
 0002:00000c90       ??_C@_07PLECNNKG@no?5link?$AA@ 10011c90     libcpmt:syserror.obj
 0002:00000c98       ??_C@_0BF@PBGGPKKE@no?5message?5available?$AA@ 10011c98     libcpmt:syserror.obj
 0002:00000cb0       ??_C@_0L@EDOLMPAK@no?5message?$AA@ 10011cb0     libcpmt:syserror.obj
 0002:00000cbc       ??_C@_0BD@EAMBFIDF@no?5protocol?5option?$AA@ 10011cbc     libcpmt:syserror.obj
 0002:00000cd0       ??_C@_0BE@MKFDAFMP@no?5stream?5resources?$AA@ 10011cd0     libcpmt:syserror.obj
 0002:00000ce4       ??_C@_0BK@IMCPHCBI@no?5such?5device?5or?5address?$AA@ 10011ce4     libcpmt:syserror.obj
 0002:00000d00       ??_C@_0BA@ENLPPKBN@no?5such?5process?$AA@ 10011d00     libcpmt:syserror.obj
 0002:00000d10       ??_C@_0BA@DOCPFFJG@not?5a?5directory?$AA@ 10011d10     libcpmt:syserror.obj
 0002:00000d20       ??_C@_0N@POEIPGGF@not?5a?5socket?$AA@ 10011d20     libcpmt:syserror.obj
 0002:00000d30       ??_C@_0N@LGAPMMPI@not?5a?5stream?$AA@ 10011d30     libcpmt:syserror.obj
 0002:00000d40       ??_C@_0O@GLMIBBEG@not?5connected?$AA@ 10011d40     libcpmt:syserror.obj
 0002:00000d50       ??_C@_0O@NHEDABJP@not?5supported?$AA@ 10011d50     libcpmt:syserror.obj
 0002:00000d60       ??_C@_0BG@KDKHOPCO@operation?5in?5progress?$AA@ 10011d60     libcpmt:syserror.obj
 0002:00000d78       ??_C@_0BI@OHIEJAAB@operation?5not?5permitted?$AA@ 10011d78     libcpmt:syserror.obj
 0002:00000d90       ??_C@_0BI@LNEGIFLN@operation?5not?5supported?$AA@ 10011d90     libcpmt:syserror.obj
 0002:00000da8       ??_C@_0BG@OEMDKMEE@operation?5would?5block?$AA@ 10011da8     libcpmt:syserror.obj
 0002:00000dc0       ??_C@_0L@BLPOFLNJ@owner?5dead?$AA@ 10011dc0     libcpmt:syserror.obj
 0002:00000dcc       ??_C@_0P@FNPOCJBE@protocol?5error?$AA@ 10011dcc     libcpmt:syserror.obj
 0002:00000ddc       ??_C@_0BH@JPPPLHJB@protocol?5not?5supported?$AA@ 10011ddc     libcpmt:syserror.obj
 0002:00000df4       ??_C@_0BG@EICBIHDP@read?5only?5file?5system?$AA@ 10011df4     libcpmt:syserror.obj
 0002:00000e0c       ??_C@_0BO@BJBOMOEJ@resource?5deadlock?5would?5occur?$AA@ 10011e0c     libcpmt:syserror.obj
 0002:00000e2c       ??_C@_0BE@GOIPJJHG@result?5out?5of?5range?$AA@ 10011e2c     libcpmt:syserror.obj
 0002:00000e40       ??_C@_0BG@MPLKFPAE@state?5not?5recoverable?$AA@ 10011e40     libcpmt:syserror.obj
 0002:00000e58       ??_C@_0P@DIIFGFCG@stream?5timeout?$AA@ 10011e58     libcpmt:syserror.obj
 0002:00000e68       ??_C@_0P@IPFDMIFL@text?5file?5busy?$AA@ 10011e68     libcpmt:syserror.obj
 0002:00000e78       ??_C@_09KJPPMAOI@timed?5out?$AA@ 10011e78     libcpmt:syserror.obj
 0002:00000e84       ??_C@_0BO@HACHBEKI@too?5many?5files?5open?5in?5system?$AA@ 10011e84     libcpmt:syserror.obj
 0002:00000ea4       ??_C@_0P@HCOMKFCC@too?5many?5links?$AA@ 10011ea4     libcpmt:syserror.obj
 0002:00000eb4       ??_C@_0BO@EFGOJEF@too?5many?5symbolic?5link?5levels?$AA@ 10011eb4     libcpmt:syserror.obj
 0002:00000ed4       ??_C@_0BA@KGKGOOJA@value?5too?5large?$AA@ 10011ed4     libcpmt:syserror.obj
 0002:00000ee4       ??_C@_0BE@MIEJDDNH@wrong?5protocol?5type?$AA@ 10011ee4     libcpmt:syserror.obj
 0002:00000efc       ??_7bad_alloc@std@@6B@     10011efc     libcpmt:xthrow.obj
 0002:00000f04       ??_C@_0P@GHFPNOJB@bad?5allocation?$AA@ 10011f04     libcpmt:xthrow.obj
 0002:00000f14       ??_C@_17LGKOMLJ@?$AA?4?$AA?4?$AA?4?$AA?$AA@ 10011f14     LIBCMT:wassert.obj
 0002:00000f1c       ??_C@_13LBAGMAIH@?$AA?6?$AA?$AA@ 10011f1c     LIBCMT:wassert.obj
 0002:00000f20       ??_C@_15IABLJNFO@?$AA?6?$AA?6?$AA?$AA@ 10011f20     LIBCMT:wassert.obj
 0002:00000f28       ??_C@_1CE@OJBNHDMO@?$AAA?$AAs?$AAs?$AAe?$AAr?$AAt?$AAi?$AAo?$AAn?$AA?5?$AAf?$AAa?$AAi?$AAl?$AAe?$AAd?$AA?$CB?$AA?$AA@ 10011f28     LIBCMT:wassert.obj
 0002:00000f4c       ??_C@_1BE@PHKBBGE@?$AAP?$AAr?$AAo?$AAg?$AAr?$AAa?$AAm?$AA?3?$AA?5?$AA?$AA@ 10011f4c     LIBCMT:wassert.obj
 0002:00000f60       ??_C@_1CO@EAEJAADC@?$AA?$DM?$AAp?$AAr?$AAo?$AAg?$AAr?$AAa?$AAm?$AA?5?$AAn?$AAa?$AAm?$AAe?$AA?5?$AAu?$AAn?$AAk?$AAn?$AAo?$AAw?$AAn?$AA?$DO?$AA?$AA@ 10011f60     LIBCMT:wassert.obj
 0002:00000f90       ??_C@_1O@HEMHKNDC@?$AAF?$AAi?$AAl?$AAe?$AA?3?$AA?5?$AA?$AA@ 10011f90     LIBCMT:wassert.obj
 0002:00000fa0       ??_C@_1O@KCAFKHJE@?$AAL?$AAi?$AAn?$AAe?$AA?3?$AA?5?$AA?$AA@ 10011fa0     LIBCMT:wassert.obj
 0002:00000fb0       ??_C@_1BK@PEDCIPMA@?$AAE?$AAx?$AAp?$AAr?$AAe?$AAs?$AAs?$AAi?$AAo?$AAn?$AA?3?$AA?5?$AA?$AA@ 10011fb0     LIBCMT:wassert.obj
 0002:00000fd0       ??_C@_1OA@EGMLFBHJ@?$AAF?$AAo?$AAr?$AA?5?$AAi?$AAn?$AAf?$AAo?$AAr?$AAm?$AAa?$AAt?$AAi?$AAo?$AAn?$AA?5?$AAo?$AAn?$AA?5?$AAh?$AAo?$AAw?$AA?5?$AAy?$AAo?$AAu?$AAr?$AA?5?$AAp?$AAr?$AAo?$AAg@ 10011fd0     LIBCMT:wassert.obj
 0002:000010b0       ??_C@_1HK@POCJMFGK@?$AA?$CI?$AAP?$AAr?$AAe?$AAs?$AAs?$AA?5?$AAR?$AAe?$AAt?$AAr?$AAy?$AA?5?$AAt?$AAo?$AA?5?$AAd?$AAe?$AAb?$AAu?$AAg?$AA?5?$AAt?$AAh?$AAe?$AA?5?$AAa?$AAp?$AAp?$AAl?$AAi?$AAc@ 100120b0     LIBCMT:wassert.obj
 0002:00001130       ??_C@_1EK@MBDPDCGA@?$AAM?$AAi?$AAc?$AAr?$AAo?$AAs?$AAo?$AAf?$AAt?$AA?5?$AAV?$AAi?$AAs?$AAu?$AAa?$AAl?$AA?5?$AAC?$AA?$CL?$AA?$CL?$AA?5?$AAR?$AAu?$AAn?$AAt?$AAi?$AAm?$AAe?$AA?5?$AAL?$AAi?$AAb@ 10012130     LIBCMT:wassert.obj
 0002:0000117c       __pDefaultRawDllMain       1001217c     LIBCMT:dllcrt0.obj
 0002:0000117c       __pRawDllMain              1001217c     LIBCMT:dllcrt0.obj
 0002:000011a4       ??_7type_info@@6B@         100121a4     LIBCMT:typinfo.obj
 0002:000011a8       __FPinit                   100121a8     LIBCMT:fpinit.obj
 0002:000011b0       ??_7exception@std@@6B@     100121b0     LIBCMT:stdexcpt.obj
 0002:000011b8       ??_C@_0BC@EOODALEL@Unknown?5exception?$AA@ 100121b8     LIBCMT:stdexcpt.obj
 0002:000011d4       ??_C@_1BI@BGOHAHKC@?$AAm?$AAs?$AAc?$AAo?$AAr?$AAe?$AAe?$AA?4?$AAd?$AAl?$AAl?$AA?$AA@ 100121d4     LIBCMT:crt0dat.obj
 0002:000011ec       ??_C@_0P@MIGLKIOC@CorExitProcess?$AA@ 100121ec     LIBCMT:crt0dat.obj
 0002:000011fc       ??_C@_1BG@GOEBHBDC@?$AAU?$AAS?$AAE?$AAR?$AA3?$AA2?$AA?4?$AAD?$AAL?$AAL?$AA?$AA@ 100121fc     LIBCMT:crtmboxw.obj
 0002:00001214       ??_C@_0M@DLDCCGNP@MessageBoxW?$AA@ 10012214     LIBCMT:crtmboxw.obj
 0002:00001220       ??_C@_0BA@HNOPNCHB@GetActiveWindow?$AA@ 10012220     LIBCMT:crtmboxw.obj
 0002:00001230       ??_C@_0BD@HHGDFDBJ@GetLastActivePopup?$AA@ 10012230     LIBCMT:crtmboxw.obj
 0002:00001244       ??_C@_0BK@DEKFELLI@GetUserObjectInformationW?$AA@ 10012244     LIBCMT:crtmboxw.obj
 0002:00001260       ??_C@_0BI@DFKBFLJE@GetProcessWindowStation?$AA@ 10012260     LIBCMT:crtmboxw.obj
 0002:00001330       ??_C@_1FK@PGACCAFB@?$AAR?$AA6?$AA0?$AA0?$AA2?$AA?$AN?$AA?6?$AA?9?$AA?5?$AAf?$AAl?$AAo?$AAa?$AAt?$AAi?$AAn?$AAg?$AA?5?$AAp?$AAo?$AAi?$AAn?$AAt?$AA?5?$AAs?$AAu?$AAp?$AAp?$AAo?$AAr?$AAt?$AA?5@ 10012330     LIBCMT:crt0msg.obj
 0002:00001390       ??_C@_1FE@LLNEDJMD@?$AAR?$AA6?$AA0?$AA0?$AA8?$AA?$AN?$AA?6?$AA?9?$AA?5?$AAn?$AAo?$AAt?$AA?5?$AAe?$AAn?$AAo?$AAu?$AAg?$AAh?$AA?5?$AAs?$AAp?$AAa?$AAc?$AAe?$AA?5?$AAf?$AAo?$AAr?$AA?5?$AAa?$AAr@ 10012390     LIBCMT:crt0msg.obj
 0002:000013e8       ??_C@_1FI@HONFMGBI@?$AAR?$AA6?$AA0?$AA0?$AA9?$AA?$AN?$AA?6?$AA?9?$AA?5?$AAn?$AAo?$AAt?$AA?5?$AAe?$AAn?$AAo?$AAu?$AAg?$AAh?$AA?5?$AAs?$AAp?$AAa?$AAc?$AAe?$AA?5?$AAf?$AAo?$AAr?$AA?5?$AAe?$AAn@ 100123e8     LIBCMT:crt0msg.obj
 0002:00001440       ??_C@_1EG@BEHAGFJD@?$AAR?$AA6?$AA0?$AA1?$AA0?$AA?$AN?$AA?6?$AA?9?$AA?5?$AAa?$AAb?$AAo?$AAr?$AAt?$AA?$CI?$AA?$CJ?$AA?5?$AAh?$AAa?$AAs?$AA?5?$AAb?$AAe?$AAe?$AAn?$AA?5?$AAc?$AAa?$AAl?$AAl?$AAe?$AAd@ 10012440     LIBCMT:crt0msg.obj
 0002:00001488       ??_C@_1FI@LOGNIKDM@?$AAR?$AA6?$AA0?$AA1?$AA6?$AA?$AN?$AA?6?$AA?9?$AA?5?$AAn?$AAo?$AAt?$AA?5?$AAe?$AAn?$AAo?$AAu?$AAg?$AAh?$AA?5?$AAs?$AAp?$AAa?$AAc?$AAe?$AA?5?$AAf?$AAo?$AAr?$AA?5?$AAt?$AAh@ 10012488     LIBCMT:crt0msg.obj
 0002:000014e0       ??_C@_1FK@BEOGODMC@?$AAR?$AA6?$AA0?$AA1?$AA7?$AA?$AN?$AA?6?$AA?9?$AA?5?$AAu?$AAn?$AAe?$AAx?$AAp?$AAe?$AAc?$AAt?$AAe?$AAd?$AA?5?$AAm?$AAu?$AAl?$AAt?$AAi?$AAt?$AAh?$AAr?$AAe?$AAa?$AAd?$AA?5@ 100124e0     LIBCMT:crt0msg.obj
 0002:00001540       ??_C@_1EC@JIBHAOPH@?$AAR?$AA6?$AA0?$AA1?$AA8?$AA?$AN?$AA?6?$AA?9?$AA?5?$AAu?$AAn?$AAe?$AAx?$AAp?$AAe?$AAc?$AAt?$AAe?$AAd?$AA?5?$AAh?$AAe?$AAa?$AAp?$AA?5?$AAe?$AAr?$AAr?$AAo?$AAr?$AA?$AN?$AA?6@ 10012540     LIBCMT:crt0msg.obj
 0002:00001588       ??_C@_1FC@ECHBIFBC@?$AAR?$AA6?$AA0?$AA1?$AA9?$AA?$AN?$AA?6?$AA?9?$AA?5?$AAu?$AAn?$AAa?$AAb?$AAl?$AAe?$AA?5?$AAt?$AAo?$AA?5?$AAo?$AAp?$AAe?$AAn?$AA?5?$AAc?$AAo?$AAn?$AAs?$AAo?$AAl?$AAe?$AA?5@ 10012588     LIBCMT:crt0msg.obj
 0002:000015e0       ??_C@_1GK@FHCKBEFA@?$AAR?$AA6?$AA0?$AA2?$AA4?$AA?$AN?$AA?6?$AA?9?$AA?5?$AAn?$AAo?$AAt?$AA?5?$AAe?$AAn?$AAo?$AAu?$AAg?$AAh?$AA?5?$AAs?$AAp?$AAa?$AAc?$AAe?$AA?5?$AAf?$AAo?$AAr?$AA?5?$AA_?$AAo@ 100125e0     LIBCMT:crt0msg.obj
 0002:00001650       ??_C@_1EM@MAADIHMB@?$AAR?$AA6?$AA0?$AA2?$AA5?$AA?$AN?$AA?6?$AA?9?$AA?5?$AAp?$AAu?$AAr?$AAe?$AA?5?$AAv?$AAi?$AAr?$AAt?$AAu?$AAa?$AAl?$AA?5?$AAf?$AAu?$AAn?$AAc?$AAt?$AAi?$AAo?$AAn?$AA?5?$AAc@ 10012650     LIBCMT:crt0msg.obj
 0002:000016a0       ??_C@_1GK@MCAAGJMO@?$AAR?$AA6?$AA0?$AA2?$AA6?$AA?$AN?$AA?6?$AA?9?$AA?5?$AAn?$AAo?$AAt?$AA?5?$AAe?$AAn?$AAo?$AAu?$AAg?$AAh?$AA?5?$AAs?$AAp?$AAa?$AAc?$AAe?$AA?5?$AAf?$AAo?$AAr?$AA?5?$AAs?$AAt@ 100126a0     LIBCMT:crt0msg.obj
 0002:00001710       ??_C@_1GK@MFGOKLAG@?$AAR?$AA6?$AA0?$AA2?$AA7?$AA?$AN?$AA?6?$AA?9?$AA?5?$AAn?$AAo?$AAt?$AA?5?$AAe?$AAn?$AAo?$AAu?$AAg?$AAh?$AA?5?$AAs?$AAp?$AAa?$AAc?$AAe?$AA?5?$AAf?$AAo?$AAr?$AA?5?$AAl?$AAo@ 10012710     LIBCMT:crt0msg.obj
 0002:00001780       ??_C@_1EK@HHFLMAOL@?$AAR?$AA6?$AA0?$AA2?$AA8?$AA?$AN?$AA?6?$AA?9?$AA?5?$AAu?$AAn?$AAa?$AAb?$AAl?$AAe?$AA?5?$AAt?$AAo?$AA?5?$AAi?$AAn?$AAi?$AAt?$AAi?$AAa?$AAl?$AAi?$AAz?$AAe?$AA?5?$AAh?$AAe@ 10012780     LIBCMT:crt0msg.obj
 0002:000017cc       ??_C@_1DO@BMFCDCD@?$AAR?$AA6?$AA0?$AA3?$AA0?$AA?$AN?$AA?6?$AA?9?$AA?5?$AAC?$AAR?$AAT?$AA?5?$AAn?$AAo?$AAt?$AA?5?$AAi?$AAn?$AAi?$AAt?$AAi?$AAa?$AAl?$AAi?$AAz?$AAe?$AAd?$AA?$AN?$AA?6?$AA?$AA@ 100127cc     LIBCMT:crt0msg.obj
 0002:00001810       ??_C@_1MG@ENCOOIDF@?$AAR?$AA6?$AA0?$AA3?$AA1?$AA?$AN?$AA?6?$AA?9?$AA?5?$AAA?$AAt?$AAt?$AAe?$AAm?$AAp?$AAt?$AA?5?$AAt?$AAo?$AA?5?$AAi?$AAn?$AAi?$AAt?$AAi?$AAa?$AAl?$AAi?$AAz?$AAe?$AA?5?$AAt@ 10012810     LIBCMT:crt0msg.obj
 0002:000018d8       ??_C@_1GG@GOPILAJP@?$AAR?$AA6?$AA0?$AA3?$AA2?$AA?$AN?$AA?6?$AA?9?$AA?5?$AAn?$AAo?$AAt?$AA?5?$AAe?$AAn?$AAo?$AAu?$AAg?$AAh?$AA?5?$AAs?$AAp?$AAa?$AAc?$AAe?$AA?5?$AAf?$AAo?$AAr?$AA?5?$AAl?$AAo@ 100128d8     LIBCMT:crt0msg.obj
 0002:00001940       ??_C@_1BOO@KGEDBGAJ@?$AAR?$AA6?$AA0?$AA3?$AA3?$AA?$AN?$AA?6?$AA?9?$AA?5?$AAA?$AAt?$AAt?$AAe?$AAm?$AAp?$AAt?$AA?5?$AAt?$AAo?$AA?5?$AAu?$AAs?$AAe?$AA?5?$AAM?$AAS?$AAI?$AAL?$AA?5?$AAc?$AAo?$AAd@ 10012940     LIBCMT:crt0msg.obj
 0002:00001b30       ??_C@_1GG@MKFPEKFO@?$AAR?$AA6?$AA0?$AA3?$AA4?$AA?$AN?$AA?6?$AA?9?$AA?5?$AAi?$AAn?$AAc?$AAo?$AAn?$AAs?$AAi?$AAs?$AAt?$AAe?$AAn?$AAt?$AA?5?$AAo?$AAn?$AAe?$AAx?$AAi?$AAt?$AA?5?$AAb?$AAe?$AAg@ 10012b30     LIBCMT:crt0msg.obj
 0002:00001b98       ??_C@_1BO@BFCDCGC@?$AAD?$AAO?$AAM?$AAA?$AAI?$AAN?$AA?5?$AAe?$AAr?$AAr?$AAo?$AAr?$AA?$AN?$AA?6?$AA?$AA@ 10012b98     LIBCMT:crt0msg.obj
 0002:00001bb8       ??_C@_1BK@KMOMNAAI@?$AAS?$AAI?$AAN?$AAG?$AA?5?$AAe?$AAr?$AAr?$AAo?$AAr?$AA?$AN?$AA?6?$AA?$AA@ 10012bb8     LIBCMT:crt0msg.obj
 0002:00001bd4       ??_C@_1BM@JBBEPPHI@?$AAT?$AAL?$AAO?$AAS?$AAS?$AA?5?$AAe?$AAr?$AAr?$AAo?$AAr?$AA?$AN?$AA?6?$AA?$AA@ 10012bd4     LIBCMT:crt0msg.obj
 0002:00001bf0       ??_C@_15JNBOKNOG@?$AA?$AN?$AA?6?$AA?$AA@ 10012bf0     LIBCMT:crt0msg.obj
 0002:00001bf8       ??_C@_1BO@BKOMIGKJ@?$AAr?$AAu?$AAn?$AAt?$AAi?$AAm?$AAe?$AA?5?$AAe?$AAr?$AAr?$AAo?$AAr?$AA?5?$AA?$AA@ 10012bf8     LIBCMT:crt0msg.obj
 0002:00001c18       ??_C@_1DE@JNGNBFGO@?$AAR?$AAu?$AAn?$AAt?$AAi?$AAm?$AAe?$AA?5?$AAE?$AAr?$AAr?$AAo?$AAr?$AA?$CB?$AA?6?$AA?6?$AAP?$AAr?$AAo?$AAg?$AAr?$AAa?$AAm?$AA?3?$AA?5?$AA?$AA@ 10012c18     LIBCMT:crt0msg.obj
 0002:00001c4c       ??_C@_03KHJOGHMM@exp?$AA@  10012c4c     LIBCMT:fpexcept.obj
 0002:00001c50       ??_C@_03JGHBODFD@pow?$AA@  10012c50     LIBCMT:fpexcept.obj
 0002:00001c54       ??_C@_03MGHMBJCF@log?$AA@  10012c54     LIBCMT:fpexcept.obj
 0002:00001c58       ??_C@_05HGHHAHAP@log10?$AA@ 10012c58     LIBCMT:fpexcept.obj
 0002:00001c60       ??_C@_04COOMCNPB@sinh?$AA@ 10012c60     LIBCMT:fpexcept.obj
 0002:00001c68       ??_C@_04HPJJNFIM@cosh?$AA@ 10012c68     LIBCMT:fpexcept.obj
 0002:00001c70       ??_C@_04FJHINJAO@tanh?$AA@ 10012c70     LIBCMT:fpexcept.obj
 0002:00001c78       ??_C@_04FIHNOPOL@asin?$AA@ 10012c78     LIBCMT:fpexcept.obj
 0002:00001c80       ??_C@_04PDIFKINK@acos?$AA@ 10012c80     LIBCMT:fpexcept.obj
 0002:00001c88       ??_C@_04MLLJIGOK@atan?$AA@ 10012c88     LIBCMT:fpexcept.obj
 0002:00001c90       ??_C@_05KNGEOGJB@atan2?$AA@ 10012c90     LIBCMT:fpexcept.obj
 0002:00001c98       ??_C@_04EIAKFFMI@sqrt?$AA@ 10012c98     LIBCMT:fpexcept.obj
 0002:00001ca0       ??_C@_03BLEJJJBH@sin?$AA@  10012ca0     LIBCMT:fpexcept.obj
 0002:00001ca4       ??_C@_03LALBNOCG@cos?$AA@  10012ca4     LIBCMT:fpexcept.obj
 0002:00001ca8       ??_C@_03IIINPABG@tan?$AA@  10012ca8     LIBCMT:fpexcept.obj
 0002:00001cac       ??_C@_04GFPJNGEK@ceil?$AA@ 10012cac     LIBCMT:fpexcept.obj
 0002:00001cb4       ??_C@_05PBJFFIGL@floor?$AA@ 10012cb4     LIBCMT:fpexcept.obj
 0002:00001cbc       ??_C@_04ODHECPBC@fabs?$AA@ 10012cbc     LIBCMT:fpexcept.obj
 0002:00001cc4       ??_C@_04EHEDPDJG@modf?$AA@ 10012cc4     LIBCMT:fpexcept.obj
 0002:00001ccc       ??_C@_05CEJMAHNP@ldexp?$AA@ 10012ccc     LIBCMT:fpexcept.obj
 0002:00001cd4       ??_C@_05KBKMEMPO@_cabs?$AA@ 10012cd4     LIBCMT:fpexcept.obj
 0002:00001cdc       ??_C@_06MEIMCGCF@_hypot?$AA@ 10012cdc     LIBCMT:fpexcept.obj
 0002:00001ce4       ??_C@_04KEPJIHGP@fmod?$AA@ 10012ce4     LIBCMT:fpexcept.obj
 0002:00001cec       ??_C@_05GKKHEGJL@frexp?$AA@ 10012cec     LIBCMT:fpexcept.obj
 0002:00001cf4       ??_C@_03MJLDFKDL@_y0?$AA@  10012cf4     LIBCMT:fpexcept.obj
 0002:00001cf8       ??_C@_03NAKIGLHK@_y1?$AA@  10012cf8     LIBCMT:fpexcept.obj
 0002:00001cfc       ??_C@_03ONILCKOB@_yn?$AA@  10012cfc     LIBCMT:fpexcept.obj
 0002:00001d00       ??_C@_05JGDBENOH@_logb?$AA@ 10012d00     LIBCMT:fpexcept.obj
 0002:00001d08       ??_C@_0L@KDOEJCKC@_nextafter?$AA@ 10012d08     LIBCMT:fpexcept.obj
 0002:00001d24       ??_C@_1M@HPNHIDJI@?$AAj?$AAa?$AA?9?$AAJ?$AAP?$AA?$AA@ 10012d24     LIBCMT:mbctype.obj
 0002:00001d30       ??_C@_1M@BIBDDEMK@?$AAz?$AAh?$AA?9?$AAC?$AAN?$AA?$AA@ 10012d30     LIBCMT:mbctype.obj
 0002:00001d3c       ??_C@_1M@JLOOOEGK@?$AAk?$AAo?$AA?9?$AAK?$AAR?$AA?$AA@ 10012d3c     LIBCMT:mbctype.obj
 0002:00001d48       ??_C@_1M@CLNBBOPM@?$AAz?$AAh?$AA?9?$AAT?$AAW?$AA?$AA@ 10012d48     LIBCMT:mbctype.obj
 0002:00001d54       ??_C@_03KOEHGMDN@Sun?$AA@  10012d54     LIBCMT:nlsdata.obj
 0002:00001d58       ??_C@_03PDAGKDH@Mon?$AA@   10012d58     LIBCMT:nlsdata.obj
 0002:00001d5c       ??_C@_03NAGEINEP@Tue?$AA@  10012d5c     LIBCMT:nlsdata.obj
 0002:00001d60       ??_C@_03MHOMLAJA@Wed?$AA@  10012d60     LIBCMT:nlsdata.obj
 0002:00001d64       ??_C@_03IOFIKPDN@Thu?$AA@  10012d64     LIBCMT:nlsdata.obj
 0002:00001d68       ??_C@_03IDIOELNC@Fri?$AA@  10012d68     LIBCMT:nlsdata.obj
 0002:00001d6c       ??_C@_03FEFJNEK@Sat?$AA@   10012d6c     LIBCMT:nlsdata.obj
 0002:00001d70       ??_C@_06OOPIFAJ@Sunday?$AA@ 10012d70     LIBCMT:nlsdata.obj
 0002:00001d78       ??_C@_06JLEDEDGH@Monday?$AA@ 10012d78     LIBCMT:nlsdata.obj
 0002:00001d80       ??_C@_07BAAGCFCM@Tuesday?$AA@ 10012d80     LIBCMT:nlsdata.obj
 0002:00001d88       ??_C@_09DLIGFAKA@Wednesday?$AA@ 10012d88     LIBCMT:nlsdata.obj
 0002:00001d94       ??_C@_08HACCIKIA@Thursday?$AA@ 10012d94     LIBCMT:nlsdata.obj
 0002:00001da0       ??_C@_06JECMNKMI@Friday?$AA@ 10012da0     LIBCMT:nlsdata.obj
 0002:00001da8       ??_C@_08INBOOONO@Saturday?$AA@ 10012da8     LIBCMT:nlsdata.obj
 0002:00001db4       ??_C@_03JIHJHPIE@Jan?$AA@  10012db4     LIBCMT:nlsdata.obj
 0002:00001db8       ??_C@_03HJBDCHOM@Feb?$AA@  10012db8     LIBCMT:nlsdata.obj
 0002:00001dbc       ??_C@_03ODNJBKGA@Mar?$AA@  10012dbc     LIBCMT:nlsdata.obj
 0002:00001dc0       ??_C@_03LEOLGMJP@Apr?$AA@  10012dc0     LIBCMT:nlsdata.obj
 0002:00001dc4       ??_C@_03CNMDKL@May?$AA@    10012dc4     LIBCMT:nlsdata.obj
 0002:00001dc8       ??_C@_03IDFGHECI@Jun?$AA@  10012dc8     LIBCMT:nlsdata.obj
 0002:00001dcc       ??_C@_03LBGABGKK@Jul?$AA@  10012dcc     LIBCMT:nlsdata.obj
 0002:00001dd0       ??_C@_03IFJFEIGA@Aug?$AA@  10012dd0     LIBCMT:nlsdata.obj
 0002:00001dd4       ??_C@_03GGCAPAJC@Sep?$AA@  10012dd4     LIBCMT:nlsdata.obj
 0002:00001dd8       ??_C@_03BMAOKBAD@Oct?$AA@  10012dd8     LIBCMT:nlsdata.obj
 0002:00001ddc       ??_C@_03JPJOFNIA@Nov?$AA@  10012ddc     LIBCMT:nlsdata.obj
 0002:00001de0       ??_C@_03MKABNOCG@Dec?$AA@  10012de0     LIBCMT:nlsdata.obj
 0002:00001de4       ??_C@_07CGJPFGJA@January?$AA@ 10012de4     LIBCMT:nlsdata.obj
 0002:00001dec       ??_C@_08GNJGEPFN@February?$AA@ 10012dec     LIBCMT:nlsdata.obj
 0002:00001df8       ??_C@_05HPCKOFNC@March?$AA@ 10012df8     LIBCMT:nlsdata.obj
 0002:00001e00       ??_C@_05DMJDNLEJ@April?$AA@ 10012e00     LIBCMT:nlsdata.obj
 0002:00001e08       ??_C@_04CNLMGBGM@June?$AA@ 10012e08     LIBCMT:nlsdata.obj
 0002:00001e10       ??_C@_04MIEPOIFP@July?$AA@ 10012e10     LIBCMT:nlsdata.obj
 0002:00001e18       ??_C@_06LBBHFDDG@August?$AA@ 10012e18     LIBCMT:nlsdata.obj
 0002:00001e20       ??_C@_09BHHEALKD@September?$AA@ 10012e20     LIBCMT:nlsdata.obj
 0002:00001e2c       ??_C@_07JJNFCEND@October?$AA@ 10012e2c     LIBCMT:nlsdata.obj
 0002:00001e34       ??_C@_08HCHEGEOA@November?$AA@ 10012e34     LIBCMT:nlsdata.obj
 0002:00001e40       ??_C@_08EDHMEBNP@December?$AA@ 10012e40     LIBCMT:nlsdata.obj
 0002:00001e4c       ??_C@_02DEDBPAFC@AM?$AA@   10012e4c     LIBCMT:nlsdata.obj
 0002:00001e50       ??_C@_02CJNFDJBF@PM?$AA@   10012e50     LIBCMT:nlsdata.obj
 0002:00001e54       ??_C@_08BPBNCDIB@MM?1dd?1yy?$AA@ 10012e54     LIBCMT:nlsdata.obj
 0002:00001e60       ??_C@_0BE@CKGJFCPC@dddd?0?5MMMM?5dd?0?5yyyy?$AA@ 10012e60     LIBCMT:nlsdata.obj
 0002:00001e74       ??_C@_08JCCMCCIL@HH?3mm?3ss?$AA@ 10012e74     LIBCMT:nlsdata.obj
 0002:00001e80       ??_C@_17MBGCMIPB@?$AAS?$AAu?$AAn?$AA?$AA@ 10012e80     LIBCMT:nlsdata.obj
 0002:00001e88       ??_C@_17KBOMKBF@?$AAM?$AAo?$AAn?$AA?$AA@ 10012e88     LIBCMT:nlsdata.obj
 0002:00001e90       ??_C@_17BMKGEGOJ@?$AAT?$AAu?$AAe?$AA?$AA@ 10012e90     LIBCMT:nlsdata.obj
 0002:00001e98       ??_C@_17CJEDCEPE@?$AAW?$AAe?$AAd?$AA?$AA@ 10012e98     LIBCMT:nlsdata.obj
 0002:00001ea0       ??_C@_17PDPHAADD@?$AAT?$AAh?$AAu?$AA?$AA@ 10012ea0     LIBCMT:nlsdata.obj
 0002:00001ea8       ??_C@_17HFOLPPLP@?$AAF?$AAr?$AAi?$AA?$AA@ 10012ea8     LIBCMT:nlsdata.obj
 0002:00001eb0       ??_C@_17GGIBDPIH@?$AAS?$AAa?$AAt?$AA?$AA@ 10012eb0     LIBCMT:nlsdata.obj
 0002:00001eb8       ??_C@_1O@IHNHDHPB@?$AAS?$AAu?$AAn?$AAd?$AAa?$AAy?$AA?$AA@ 10012eb8     LIBCMT:nlsdata.obj
 0002:00001ec8       ??_C@_1O@MMNBFLIA@?$AAM?$AAo?$AAn?$AAd?$AAa?$AAy?$AA?$AA@ 10012ec8     LIBCMT:nlsdata.obj
 0002:00001ed8       ??_C@_1BA@ENFBFFEK@?$AAT?$AAu?$AAe?$AAs?$AAd?$AAa?$AAy?$AA?$AA@ 10012ed8     LIBCMT:nlsdata.obj
 0002:00001ee8       ??_C@_1BE@EBOGMDOH@?$AAW?$AAe?$AAd?$AAn?$AAe?$AAs?$AAd?$AAa?$AAy?$AA?$AA@ 10012ee8     LIBCMT:nlsdata.obj
 0002:00001efc       ??_C@_1BC@HHMNLIHE@?$AAT?$AAh?$AAu?$AAr?$AAs?$AAd?$AAa?$AAy?$AA?$AA@ 10012efc     LIBCMT:nlsdata.obj
 0002:00001f10       ??_C@_1O@PDICJHAG@?$AAF?$AAr?$AAi?$AAd?$AAa?$AAy?$AA?$AA@ 10012f10     LIBCMT:nlsdata.obj
 0002:00001f20       ??_C@_1BC@ENMNNPAJ@?$AAS?$AAa?$AAt?$AAu?$AAr?$AAd?$AAa?$AAy?$AA?$AA@ 10012f20     LIBCMT:nlsdata.obj
 0002:00001f34       ??_C@_17DKNBKCHM@?$AAJ?$AAa?$AAn?$AA?$AA@ 10012f34     LIBCMT:nlsdata.obj
 0002:00001f3c       ??_C@_17LMDJEKJN@?$AAF?$AAe?$AAb?$AA?$AA@ 10012f3c     LIBCMT:nlsdata.obj
 0002:00001f44       ??_C@_17CKNLEDEC@?$AAM?$AAa?$AAr?$AA?$AA@ 10012f44     LIBCMT:nlsdata.obj
 0002:00001f4c       ??_C@_17LFPOIHDD@?$AAA?$AAp?$AAr?$AA?$AA@ 10012f4c     LIBCMT:nlsdata.obj
 0002:00001f54       ??_C@_17PNNKMEED@?$AAM?$AAa?$AAy?$AA?$AA@ 10012f54     LIBCMT:nlsdata.obj
 0002:00001f5c       ??_C@_17KCJGOCPB@?$AAJ?$AAu?$AAn?$AA?$AA@ 10012f5c     LIBCMT:nlsdata.obj
 0002:00001f64       ??_C@_17IJPCKHK@?$AAJ?$AAu?$AAl?$AA?$AA@ 10012f64     LIBCMT:nlsdata.obj
 0002:00001f6c       ??_C@_17ICPELBCN@?$AAA?$AAu?$AAg?$AA?$AA@ 10012f6c     LIBCMT:nlsdata.obj
 0002:00001f74       ??_C@_17HCHCOKMG@?$AAS?$AAe?$AAp?$AA?$AA@ 10012f74     LIBCMT:nlsdata.obj
 0002:00001f7c       ??_C@_17FNLKOI@?$AAO?$AAc?$AAt?$AA?$AA@ 10012f7c     LIBCMT:nlsdata.obj
 0002:00001f84       ??_C@_17BBDMLCIG@?$AAN?$AAo?$AAv?$AA?$AA@ 10012f84     LIBCMT:nlsdata.obj
 0002:00001f8c       ??_C@_17EGKACKIF@?$AAD?$AAe?$AAc?$AA?$AA@ 10012f8c     LIBCMT:nlsdata.obj
 0002:00001f94       ??_C@_1BA@EFMEIEBA@?$AAJ?$AAa?$AAn?$AAu?$AAa?$AAr?$AAy?$AA?$AA@ 10012f94     LIBCMT:nlsdata.obj
 0002:00001fa4       ??_C@_1BC@JGDDFFAM@?$AAF?$AAe?$AAb?$AAr?$AAu?$AAa?$AAr?$AAy?$AA?$AA@ 10012fa4     LIBCMT:nlsdata.obj
 0002:00001fb8       ??_C@_1M@IKEENEDF@?$AAM?$AAa?$AAr?$AAc?$AAh?$AA?$AA@ 10012fb8     LIBCMT:nlsdata.obj
 0002:00001fc4       ??_C@_1M@GJNLMHFD@?$AAA?$AAp?$AAr?$AAi?$AAl?$AA?$AA@ 10012fc4     LIBCMT:nlsdata.obj
 0002:00001fd0       ??_C@_19EPFLPGAP@?$AAJ?$AAu?$AAn?$AAe?$AA?$AA@ 10012fd0     LIBCMT:nlsdata.obj
 0002:00001fdc       ??_C@_19BIFMLPCD@?$AAJ?$AAu?$AAl?$AAy?$AA?$AA@ 10012fdc     LIBCMT:nlsdata.obj
 0002:00001fe8       ??_C@_1O@PAHLKOAC@?$AAA?$AAu?$AAg?$AAu?$AAs?$AAt?$AA?$AA@ 10012fe8     LIBCMT:nlsdata.obj
 0002:00001ff8       ??_C@_1BE@DKAAMBJL@?$AAS?$AAe?$AAp?$AAt?$AAe?$AAm?$AAb?$AAe?$AAr?$AA?$AA@ 10012ff8     LIBCMT:nlsdata.obj
 0002:0000200c       ??_C@_1BA@EPANDLNG@?$AAO?$AAc?$AAt?$AAo?$AAb?$AAe?$AAr?$AA?$AA@ 1001300c     LIBCMT:nlsdata.obj
 0002:0000201c       ??_C@_1BC@BGLIFPF@?$AAN?$AAo?$AAv?$AAe?$AAm?$AAb?$AAe?$AAr?$AA?$AA@ 1001301c     LIBCMT:nlsdata.obj
 0002:00002030       ??_C@_1BC@FEMKIFH@?$AAD?$AAe?$AAc?$AAe?$AAm?$AAb?$AAe?$AAr?$AA?$AA@ 10013030     LIBCMT:nlsdata.obj
 0002:00002044       ??_C@_15ODEHAHHF@?$AAA?$AAM?$AA?$AA@ 10013044     LIBCMT:nlsdata.obj
 0002:0000204c       ??_C@_15CLMNNGEL@?$AAP?$AAM?$AA?$AA@ 1001304c     LIBCMT:nlsdata.obj
 0002:00002054       ??_C@_1BC@IEBCMHCM@?$AAM?$AAM?$AA?1?$AAd?$AAd?$AA?1?$AAy?$AAy?$AA?$AA@ 10013054     LIBCMT:nlsdata.obj
 0002:00002068       ??_C@_1CI@KNAKOEBC@?$AAd?$AAd?$AAd?$AAd?$AA?0?$AA?5?$AAM?$AAM?$AAM?$AAM?$AA?5?$AAd?$AAd?$AA?0?$AA?5?$AAy?$AAy?$AAy?$AAy?$AA?$AA@ 10013068     LIBCMT:nlsdata.obj
 0002:00002090       ??_C@_1BC@GDGBMEMK@?$AAH?$AAH?$AA?3?$AAm?$AAm?$AA?3?$AAs?$AAs?$AA?$AA@ 10013090     LIBCMT:nlsdata.obj
 0002:000020a4       ??_C@_1M@BMHNFIME@?$AAe?$AAn?$AA?9?$AAU?$AAS?$AA?$AA@ 100130a4     LIBCMT:nlsdata.obj
 0002:00002130       __XcptActTab               10013130     LIBCMT:winxfltr.obj
 0002:000021c0       __XcptActTabCount          100131c0     LIBCMT:winxfltr.obj
 0002:000021c4       __XcptActTabSize           100131c4     LIBCMT:winxfltr.obj
 0002:000021c8       __First_FPE_Indx           100131c8     LIBCMT:winxfltr.obj
 0002:000021cc       __Num_FPE                  100131cc     LIBCMT:winxfltr.obj
 0002:000021d0       ??_C@_1BK@MGMFAEKH@?$AAk?$AAe?$AAr?$AAn?$AAe?$AAl?$AA3?$AA2?$AA?4?$AAd?$AAl?$AAl?$AA?$AA@ 100131d0     LIBCMT:winapisupp.obj
 0002:000021ec       ??_C@_08KNHFBNJ@FlsAlloc?$AA@ 100131ec     LIBCMT:winapisupp.obj
 0002:000021f8       ??_C@_07PEJMOBNF@FlsFree?$AA@ 100131f8     LIBCMT:winapisupp.obj
 0002:00002200       ??_C@_0M@GDNOONDI@FlsGetValue?$AA@ 10013200     LIBCMT:winapisupp.obj
 0002:0000220c       ??_C@_0M@JCPCPOEF@FlsSetValue?$AA@ 1001320c     LIBCMT:winapisupp.obj
 0002:00002218       ??_C@_0BM@HCFOFFN@InitializeCriticalSectionEx?$AA@ 10013218     LIBCMT:winapisupp.obj
 0002:00002234       ??_C@_0P@DLHPPCNH@CreateEventExW?$AA@ 10013234     LIBCMT:winapisupp.obj
 0002:00002244       ??_C@_0BD@KIEEOEEH@CreateSemaphoreExW?$AA@ 10013244     LIBCMT:winapisupp.obj
 0002:00002258       ??_C@_0BI@BKLFFAPO@SetThreadStackGuarantee?$AA@ 10013258     LIBCMT:winapisupp.obj
 0002:00002270       ??_C@_0BG@OGFAJCKC@CreateThreadpoolTimer?$AA@ 10013270     LIBCMT:winapisupp.obj
 0002:00002288       ??_C@_0BD@LPLEMMDI@SetThreadpoolTimer?$AA@ 10013288     LIBCMT:winapisupp.obj
 0002:0000229c       ??_C@_0CA@FMNJENH@WaitForThreadpoolTimerCallbacks?$AA@ 1001329c     LIBCMT:winapisupp.obj
 0002:000022bc       ??_C@_0BF@DCFCCNOC@CloseThreadpoolTimer?$AA@ 100132bc     LIBCMT:winapisupp.obj
 0002:000022d4       ??_C@_0BF@FLABGKKM@CreateThreadpoolWait?$AA@ 100132d4     LIBCMT:winapisupp.obj
 0002:000022ec       ??_C@_0BC@MGCOHNA@SetThreadpoolWait?$AA@ 100132ec     LIBCMT:winapisupp.obj
 0002:00002300       ??_C@_0BE@OCIOMIMP@CloseThreadpoolWait?$AA@ 10013300     LIBCMT:winapisupp.obj
 0002:00002314       ??_C@_0BJ@LKGHFHBO@FlushProcessWriteBuffers?$AA@ 10013314     LIBCMT:winapisupp.obj
 0002:00002330       ??_C@_0BP@KALKKPMO@FreeLibraryWhenCallbackReturns?$AA@ 10013330     LIBCMT:winapisupp.obj
 0002:00002350       ??_C@_0BK@DFNBACLA@GetCurrentProcessorNumber?$AA@ 10013350     LIBCMT:winapisupp.obj
 0002:0000236c       ??_C@_0BP@KHGALBC@GetLogicalProcessorInformation?$AA@ 1001336c     LIBCMT:winapisupp.obj
 0002:0000238c       ??_C@_0BE@FKKLLFLM@CreateSymbolicLinkW?$AA@ 1001338c     LIBCMT:winapisupp.obj
 0002:000023a0       ??_C@_0BJ@OHNKDLIJ@SetDefaultDllDirectories?$AA@ 100133a0     LIBCMT:winapisupp.obj
 0002:000023bc       ??_C@_0BE@LJANKFHF@EnumSystemLocalesEx?$AA@ 100133bc     LIBCMT:winapisupp.obj
 0002:000023d0       ??_C@_0BA@IHGNDAEB@CompareStringEx?$AA@ 100133d0     LIBCMT:winapisupp.obj
 0002:000023e0       ??_C@_0BA@EPCJIIPD@GetDateFormatEx?$AA@ 100133e0     LIBCMT:winapisupp.obj
 0002:000023f0       ??_C@_0BA@ONOKGCMP@GetLocaleInfoEx?$AA@ 100133f0     LIBCMT:winapisupp.obj
 0002:00002400       ??_C@_0BA@CIJJKCJJ@GetTimeFormatEx?$AA@ 10013400     LIBCMT:winapisupp.obj
 0002:00002410       ??_C@_0BJ@PBCCBIPI@GetUserDefaultLocaleName?$AA@ 10013410     LIBCMT:winapisupp.obj
 0002:0000242c       ??_C@_0BC@CELBKLLA@IsValidLocaleName?$AA@ 1001342c     LIBCMT:winapisupp.obj
 0002:00002440       ??_C@_0O@KKBNKAPF@LCMapStringEx?$AA@ 10013440     LIBCMT:winapisupp.obj
 0002:00002450       ??_C@_0BE@JOGNEJCI@GetCurrentPackageId?$AA@ 10013450     LIBCMT:winapisupp.obj
 0002:00002464       ??_C@_0P@CDHHOHKP@GetTickCount64?$AA@ 10013464     LIBCMT:winapisupp.obj
 0002:00002474       ??_C@_0BO@KPCLFDJJ@GetFileInformationByHandleExW?$AA@ 10013474     LIBCMT:winapisupp.obj
 0002:00002494       ??_C@_0BM@MHIDLABK@SetFileInformationByHandleW?$AA@ 10013494     LIBCMT:winapisupp.obj
 0002:000024b0       __pDestructExceptionObject 100134b0     LIBCMT:frame.obj
 0002:000024b4       ??_C@_05KLBDPFGC@e?$CL000?$AA@ 100134b4     LIBCMT:cvt.obj
 0002:000024c0       _LcidToLocaleNameTable     100134c0     LIBCMT:winapinls.obj
 0002:00002be0       _LocaleNameToIndexTable    10013be0     LIBCMT:winapinls.obj
 0002:00003300       ??_C@_15EMKDOKLE@?$AAa?$AAr?$AA?$AA@ 10014300     LIBCMT:winapinls.obj
 0002:00003308       ??_C@_15KNPADPLH@?$AAb?$AAg?$AA?$AA@ 10014308     LIBCMT:winapinls.obj
 0002:00003310       ??_C@_15EDMHLDMO@?$AAc?$AAa?$AA?$AA@ 10014310     LIBCMT:winapinls.obj
 0002:00003318       ??_C@_1O@BPEAJADD@?$AAz?$AAh?$AA?9?$AAC?$AAH?$AAS?$AA?$AA@ 10014318     LIBCMT:winapinls.obj
 0002:00003328       ??_C@_15LJNHCMNK@?$AAc?$AAs?$AA?$AA@ 10014328     LIBCMT:winapinls.obj
 0002:00003330       ??_C@_15FOMCIDHG@?$AAd?$AAa?$AA?$AA@ 10014330     LIBCMT:winapinls.obj
 0002:00003338       ??_C@_15NBKABECB@?$AAd?$AAe?$AA?$AA@ 10014338     LIBCMT:winapinls.obj
 0002:00003340       ??_C@_15GHPEIIAO@?$AAe?$AAl?$AA?$AA@ 10014340     LIBCMT:winapinls.obj
 0002:00003348       ??_C@_15MNPNEAIF@?$AAe?$AAn?$AA?$AA@ 10014348     LIBCMT:winapinls.obj
 0002:00003350       ??_C@_15GPIOMPMH@?$AAe?$AAs?$AA?$AA@ 10014350     LIBCMT:winapinls.obj
 0002:00003358       ??_C@_15NGLOAKJC@?$AAf?$AAi?$AA?$AA@ 10014358     LIBCMT:winapinls.obj
 0002:00003360       ??_C@_15FBKGNKAM@?$AAf?$AAr?$AA?$AA@ 10014360     LIBCMT:winapinls.obj
 0002:00003368       ??_C@_15KGGCNEFK@?$AAh?$AAe?$AA?$AA@ 10014368     LIBCMT:winapinls.obj
 0002:00003370       ??_C@_15PGHLIDMF@?$AAh?$AAu?$AA?$AA@ 10014370     LIBCMT:winapinls.obj
 0002:00003378       ??_C@_15BIEMAPLM@?$AAi?$AAs?$AA?$AA@ 10014378     LIBCMT:winapinls.obj
 0002:00003380       ??_C@_15IFJLDHAF@?$AAi?$AAt?$AA?$AA@ 10014380     LIBCMT:winapinls.obj
 0002:00003388       ??_C@_15GEMIOCAG@?$AAj?$AAa?$AA?$AA@ 10014388     LIBCMT:winapinls.obj
 0002:00003390       ??_C@_15EPELEGJA@?$AAk?$AAo?$AA?$AA@ 10014390     LIBCMT:winapinls.obj
 0002:00003398       ??_C@_15NDDHIMN@?$AAn?$AAl?$AA?$AA@ 10014398     LIBCMT:winapinls.obj
 0002:000033a0       ??_C@_15BPIGNHCD@?$AAn?$AAo?$AA?$AA@ 100143a0     LIBCMT:winapinls.obj
 0002:000033a8       ??_C@_15DEOPBLCG@?$AAp?$AAl?$AA?$AA@ 100143a8     LIBCMT:winapinls.obj
 0002:000033b0       ??_C@_15KBECGEFG@?$AAp?$AAt?$AA?$AA@ 100143b0     LIBCMT:winapinls.obj
 0002:000033b8       ??_C@_15GLJCBFMD@?$AAr?$AAo?$AA?$AA@ 100143b8     LIBCMT:winapinls.obj
 0002:000033c0       ??_C@_15FEDGKCDI@?$AAr?$AAu?$AA?$AA@ 100143c0     LIBCMT:winapinls.obj
 0002:000033c8       ??_C@_15GLKMLLHM@?$AAh?$AAr?$AA?$AA@ 100143c8     LIBCMT:winapinls.obj
 0002:000033d0       ??_C@_15CPKMFBDB@?$AAs?$AAk?$AA?$AA@ 100143d0     LIBCMT:winapinls.obj
 0002:000033d8       ??_C@_15BAAIOGMK@?$AAs?$AAq?$AA?$AA@ 100143d8     LIBCMT:winapinls.obj
 0002:000033e0       ??_C@_15INNPNOHD@?$AAs?$AAv?$AA?$AA@ 100143e0     LIBCMT:winapinls.obj
 0002:000033e8       ??_C@_15CABMMOGH@?$AAt?$AAh?$AA?$AA@ 100143e8     LIBCMT:winapinls.obj
 0002:000033f0       ??_C@_15BPLIHJJM@?$AAt?$AAr?$AA?$AA@ 100143f0     LIBCMT:winapinls.obj
 0002:000033f8       ??_C@_15NEOEKKDJ@?$AAu?$AAr?$AA?$AA@ 100143f8     LIBCMT:winapinls.obj
 0002:00003400       ??_C@_15NFICGAJK@?$AAi?$AAd?$AA?$AA@ 10014400     LIBCMT:winapinls.obj
 0002:00003408       ??_C@_15PJPFLCCM@?$AAu?$AAk?$AA?$AA@ 10014408     LIBCMT:winapinls.obj
 0002:00003410       ??_C@_15HPJPHDM@?$AAb?$AAe?$AA?$AA@ 10014410     LIBCMT:winapinls.obj
 0002:00003418       ??_C@_15LCHLGJII@?$AAs?$AAl?$AA?$AA@ 10014418     LIBCMT:winapinls.obj
 0002:00003420       ??_C@_15PCFJPHHO@?$AAe?$AAt?$AA?$AA@ 10014420     LIBCMT:winapinls.obj
 0002:00003428       ??_C@_15HPFPGODN@?$AAl?$AAv?$AA?$AA@ 10014428     LIBCMT:winapinls.obj
 0002:00003430       ??_C@_15NFFGKGLG@?$AAl?$AAt?$AA?$AA@ 10014430     LIBCMT:winapinls.obj
 0002:00003438       ??_C@_15BDAKCCHN@?$AAf?$AAa?$AA?$AA@ 10014438     LIBCMT:winapinls.obj
 0002:00003440       ??_C@_15NFGIAIAJ@?$AAv?$AAi?$AA?$AA@ 10014440     LIBCMT:winapinls.obj
 0002:00003448       ??_C@_15LMKNDMHN@?$AAh?$AAy?$AA?$AA@ 10014448     LIBCMT:winapinls.obj
 0002:00003450       ??_C@_15IJBHMCFL@?$AAa?$AAz?$AA?$AA@ 10014450     LIBCMT:winapinls.obj
 0002:00003458       ??_C@_15EKOFJABL@?$AAe?$AAu?$AA?$AA@ 10014458     LIBCMT:winapinls.obj
 0002:00003460       ??_C@_15BGHADCNK@?$AAm?$AAk?$AA?$AA@ 10014460     LIBCMT:winapinls.obj
 0002:00003468       ??_C@_15JDNICKHM@?$AAa?$AAf?$AA?$AA@ 10014468     LIBCMT:winapinls.obj
 0002:00003470       ??_C@_15KPJEDBKD@?$AAk?$AAa?$AA?$AA@ 10014470     LIBCMT:winapinls.obj
 0002:00003478       ??_C@_15PDNFFFEO@?$AAf?$AAo?$AA?$AA@ 10014478     LIBCMT:winapinls.obj
 0002:00003480       ??_C@_15OMLEGLOC@?$AAh?$AAi?$AA?$AA@ 10014480     LIBCMT:winapinls.obj
 0002:00003488       ??_C@_15IDNNENKK@?$AAm?$AAs?$AA?$AA@ 10014488     LIBCMT:winapinls.obj
 0002:00003490       ??_C@_15MACJNBMH@?$AAk?$AAk?$AA?$AA@ 10014490     LIBCMT:winapinls.obj
 0002:00003498       ??_C@_15DKDJEOND@?$AAk?$AAy?$AA?$AA@ 10014498     LIBCMT:winapinls.obj
 0002:000034a0       ??_C@_15DFGDLJBG@?$AAs?$AAw?$AA?$AA@ 100144a0     LIBCMT:winapinls.obj
 0002:000034a8       ??_C@_15BBFAICNG@?$AAu?$AAz?$AA?$AA@ 100144a8     LIBCMT:winapinls.obj
 0002:000034b0       ??_C@_15DKNDCGEA@?$AAt?$AAt?$AA?$AA@ 100144b0     LIBCMT:winapinls.obj
 0002:000034b8       ??_C@_15MGIFMDPL@?$AAp?$AAa?$AA?$AA@ 100144b8     LIBCMT:winapinls.obj
 0002:000034c0       ??_C@_15HCNDBBA@?$AAg?$AAu?$AA?$AA@ 100144c0     LIBCMT:winapinls.obj
 0002:000034c8       ??_C@_15FNBEIBON@?$AAt?$AAa?$AA?$AA@ 100144c8     LIBCMT:winapinls.obj
 0002:000034d0       ??_C@_15NCHGBGLK@?$AAt?$AAe?$AA?$AA@ 100144d0     LIBCMT:winapinls.obj
 0002:000034d8       ??_C@_15PHPHCBPF@?$AAk?$AAn?$AA?$AA@ 100144d8     LIBCMT:winapinls.obj
 0002:000034e0       ??_C@_15DLGBCKMP@?$AAm?$AAr?$AA?$AA@ 100144e0     LIBCMT:winapinls.obj
 0002:000034e8       ??_C@_15EABBLBFF@?$AAs?$AAa?$AA?$AA@ 100144e8     LIBCMT:winapinls.obj
 0002:000034f0       ??_C@_15CBKOMCOI@?$AAm?$AAn?$AA?$AA@ 100144f0     LIBCMT:winapinls.obj
 0002:000034f8       ??_C@_15CKDMCJAF@?$AAg?$AAl?$AA?$AA@ 100144f8     LIBCMT:winapinls.obj
 0002:00003500       ??_C@_17CNJFBPG@?$AAk?$AAo?$AAk?$AA?$AA@ 10014500     LIBCMT:winapinls.obj
 0002:00003508       ??_C@_17FFBJICPL@?$AAs?$AAy?$AAr?$AA?$AA@ 10014508     LIBCMT:winapinls.obj
 0002:00003510       ??_C@_17KPNDCPAF@?$AAd?$AAi?$AAv?$AA?$AA@ 10014510     LIBCMT:winapinls.obj
 0002:00003518       ??_C@_11LOCGONAA@?$AA?$AA@ 10014518     LIBCMT:winapinls.obj
 0002:0000351c       ??_C@_1M@OKAHONE@?$AAa?$AAr?$AA?9?$AAS?$AAA?$AA?$AA@ 1001451c     LIBCMT:winapinls.obj
 0002:00003528       ??_C@_1M@FFFIGIGK@?$AAb?$AAg?$AA?9?$AAB?$AAG?$AA?$AA@ 10014528     LIBCMT:winapinls.obj
 0002:00003534       ??_C@_1M@BJNKEDC@?$AAc?$AAa?$AA?9?$AAE?$AAS?$AA?$AA@ 10014534     LIBCMT:winapinls.obj
 0002:00003540       ??_C@_1M@IJJHFJHA@?$AAc?$AAs?$AA?9?$AAC?$AAZ?$AA?$AA@ 10014540     LIBCMT:winapinls.obj
 0002:0000354c       ??_C@_1M@CLPEOBGI@?$AAd?$AAa?$AA?9?$AAD?$AAK?$AA?$AA@ 1001454c     LIBCMT:winapinls.obj
 0002:00003558       ??_C@_1M@MCMADGCB@?$AAd?$AAe?$AA?9?$AAD?$AAE?$AA?$AA@ 10014558     LIBCMT:winapinls.obj
 0002:00003564       ??_C@_1M@OOCKEMAM@?$AAe?$AAl?$AA?9?$AAG?$AAR?$AA?$AA@ 10014564     LIBCMT:winapinls.obj
 0002:00003570       ??_C@_1M@DDNJFGID@?$AAf?$AAi?$AA?9?$AAF?$AAI?$AA?$AA@ 10014570     LIBCMT:winapinls.obj
 0002:0000357c       ??_C@_1M@GLIPPMAC@?$AAf?$AAr?$AA?9?$AAF?$AAR?$AA?$AA@ 1001457c     LIBCMT:winapinls.obj
 0002:00003588       ??_C@_1M@GFMCHPE@?$AAh?$AAe?$AA?9?$AAI?$AAL?$AA?$AA@ 10014588     LIBCMT:winapinls.obj
 0002:00003594       ??_C@_1M@MHLPGNKM@?$AAh?$AAu?$AA?9?$AAH?$AAU?$AA?$AA@ 10014594     LIBCMT:winapinls.obj
 0002:000035a0       ??_C@_1M@LPDDNNPN@?$AAi?$AAs?$AA?9?$AAI?$AAS?$AA?$AA@ 100145a0     LIBCMT:winapinls.obj
 0002:000035ac       ??_C@_1M@MADIPODN@?$AAi?$AAt?$AA?9?$AAI?$AAT?$AA?$AA@ 100145ac     LIBCMT:winapinls.obj
 0002:000035b8       ??_C@_1M@IHBJJGG@?$AAn?$AAl?$AA?9?$AAN?$AAL?$AA?$AA@ 100145b8     LIBCMT:winapinls.obj
 0002:000035c4       ??_C@_1M@EANAGDL@?$AAn?$AAb?$AA?9?$AAN?$AAO?$AA?$AA@ 100145c4     LIBCMT:winapinls.obj
 0002:000035d0       ??_C@_1M@NEIEMEGP@?$AAp?$AAl?$AA?9?$AAP?$AAL?$AA?$AA@ 100145d0     LIBCMT:winapinls.obj
 0002:000035dc       ??_C@_1M@BOCFIGEP@?$AAp?$AAt?$AA?9?$AAB?$AAR?$AA?$AA@ 100145dc     LIBCMT:winapinls.obj
 0002:000035e8       ??_C@_1M@IMPFOPBG@?$AAr?$AAo?$AA?9?$AAR?$AAO?$AA?$AA@ 100145e8     LIBCMT:winapinls.obj
 0002:000035f4       ??_C@_1M@IDNNEJMM@?$AAr?$AAu?$AA?9?$AAR?$AAU?$AA?$AA@ 100145f4     LIBCMT:winapinls.obj
 0002:00003600       ??_C@_1M@LILEEOGM@?$AAh?$AAr?$AA?9?$AAH?$AAR?$AA?$AA@ 10014600     LIBCMT:winapinls.obj
 0002:0000360c       ??_C@_1M@FKIFEHPB@?$AAs?$AAk?$AA?9?$AAS?$AAK?$AA?$AA@ 1001460c     LIBCMT:winapinls.obj
 0002:00003618       ??_C@_1M@LJMAMNPJ@?$AAs?$AAq?$AA?9?$AAA?$AAL?$AA?$AA@ 10014618     LIBCMT:winapinls.obj
 0002:00003624       ??_C@_1M@GIAKDKJK@?$AAs?$AAv?$AA?9?$AAS?$AAE?$AA?$AA@ 10014624     LIBCMT:winapinls.obj
 0002:00003630       ??_C@_1M@MKJKIKCL@?$AAt?$AAh?$AA?9?$AAT?$AAH?$AA?$AA@ 10014630     LIBCMT:winapinls.obj
 0002:0000363c       ??_C@_1M@MFLCCMPB@?$AAt?$AAr?$AA?9?$AAT?$AAR?$AA?$AA@ 1001463c     LIBCMT:winapinls.obj
 0002:00003648       ??_C@_1M@OIJHDKJN@?$AAu?$AAr?$AA?9?$AAP?$AAK?$AA?$AA@ 10014648     LIBCMT:winapinls.obj
 0002:00003654       ??_C@_1M@LHIPCIEK@?$AAi?$AAd?$AA?9?$AAI?$AAD?$AA?$AA@ 10014654     LIBCMT:winapinls.obj
 0002:00003660       ??_C@_1M@MFMOBGI@?$AAu?$AAk?$AA?9?$AAU?$AAA?$AA?$AA@ 10014660     LIBCMT:winapinls.obj
 0002:0000366c       ??_C@_1M@OBGLJIPL@?$AAb?$AAe?$AA?9?$AAB?$AAY?$AA?$AA@ 1001466c     LIBCMT:winapinls.obj
 0002:00003678       ??_C@_1M@BCFAJEAD@?$AAs?$AAl?$AA?9?$AAS?$AAI?$AA?$AA@ 10014678     LIBCMT:winapinls.obj
 0002:00003684       ??_C@_1M@FKFFEDDN@?$AAe?$AAt?$AA?9?$AAE?$AAE?$AA?$AA@ 10014684     LIBCMT:winapinls.obj
 0002:00003690       ??_C@_1M@KGKKAACI@?$AAl?$AAv?$AA?9?$AAL?$AAV?$AA?$AA@ 10014690     LIBCMT:winapinls.obj
 0002:0000369c       ??_C@_1M@IFGBIJO@?$AAl?$AAt?$AA?9?$AAL?$AAT?$AA?$AA@ 1001469c     LIBCMT:winapinls.obj
 0002:000036a8       ??_C@_1M@FGEAHEDM@?$AAf?$AAa?$AA?9?$AAI?$AAR?$AA?$AA@ 100146a8     LIBCMT:winapinls.obj
 0002:000036b4       ??_C@_1M@KBMAIBFN@?$AAv?$AAi?$AA?9?$AAV?$AAN?$AA?$AA@ 100146b4     LIBCMT:winapinls.obj
 0002:000036c0       ??_C@_1M@GPCBKDJK@?$AAh?$AAy?$AA?9?$AAA?$AAM?$AA?$AA@ 100146c0     LIBCMT:winapinls.obj
 0002:000036cc       ??_C@_1BG@BECMDDJB@?$AAa?$AAz?$AA?9?$AAA?$AAZ?$AA?9?$AAL?$AAa?$AAt?$AAn?$AA?$AA@ 100146cc     LIBCMT:winapinls.obj
 0002:000036e4       ??_C@_1M@MAOFCAEA@?$AAe?$AAu?$AA?9?$AAE?$AAS?$AA?$AA@ 100146e4     LIBCMT:winapinls.obj
 0002:000036f0       ??_C@_1M@IGHABKPI@?$AAm?$AAk?$AA?9?$AAM?$AAK?$AA?$AA@ 100146f0     LIBCMT:winapinls.obj
 0002:000036fc       ??_C@_1M@IAIGNEJG@?$AAt?$AAn?$AA?9?$AAZ?$AAA?$AA?$AA@ 100146fc     LIBCMT:winapinls.obj
 0002:00003708       ??_C@_1M@IIJCOJFA@?$AAx?$AAh?$AA?9?$AAZ?$AAA?$AA?$AA@ 10014708     LIBCMT:winapinls.obj
 0002:00003714       ??_C@_1M@LGPJHNJH@?$AAz?$AAu?$AA?9?$AAZ?$AAA?$AA?$AA@ 10014714     LIBCMT:winapinls.obj
 0002:00003720       ??_C@_1M@HOKAOIO@?$AAa?$AAf?$AA?9?$AAZ?$AAA?$AA?$AA@ 10014720     LIBCMT:winapinls.obj
 0002:0000372c       ??_C@_1M@DPCLHLIE@?$AAk?$AAa?$AA?9?$AAG?$AAE?$AA?$AA@ 1001472c     LIBCMT:winapinls.obj
 0002:00003738       ??_C@_1M@BLKMHJBI@?$AAf?$AAo?$AA?9?$AAF?$AAO?$AA?$AA@ 10014738     LIBCMT:winapinls.obj
 0002:00003744       ??_C@_1M@LGGJAPPB@?$AAh?$AAi?$AA?9?$AAI?$AAN?$AA?$AA@ 10014744     LIBCMT:winapinls.obj
 0002:00003750       ??_C@_1M@FIKPIHFE@?$AAm?$AAt?$AA?9?$AAM?$AAT?$AA?$AA@ 10014750     LIBCMT:winapinls.obj
 0002:0000375c       ??_C@_1M@HEGGPBFA@?$AAs?$AAe?$AA?9?$AAN?$AAO?$AA?$AA@ 1001475c     LIBCMT:winapinls.obj
 0002:00003768       ??_C@_1M@EIBJEEPA@?$AAm?$AAs?$AA?9?$AAM?$AAY?$AA?$AA@ 10014768     LIBCMT:winapinls.obj
 0002:00003774       ??_C@_1M@FHLBGMPP@?$AAk?$AAk?$AA?9?$AAK?$AAZ?$AA?$AA@ 10014774     LIBCMT:winapinls.obj
 0002:00003780       ??_C@_1M@NGJJLCGI@?$AAk?$AAy?$AA?9?$AAK?$AAG?$AA?$AA@ 10014780     LIBCMT:winapinls.obj
 0002:0000378c       ??_C@_1M@GIENNBFC@?$AAs?$AAw?$AA?9?$AAK?$AAE?$AA?$AA@ 1001478c     LIBCMT:winapinls.obj
 0002:00003798       ??_C@_1BG@NDGMJIMJ@?$AAu?$AAz?$AA?9?$AAU?$AAZ?$AA?9?$AAL?$AAa?$AAt?$AAn?$AA?$AA@ 10014798     LIBCMT:winapinls.obj
 0002:000037b0       ??_C@_1M@IDCCIHBC@?$AAt?$AAt?$AA?9?$AAR?$AAU?$AA?$AA@ 100147b0     LIBCMT:winapinls.obj
 0002:000037bc       ??_C@_1M@LOICPMOJ@?$AAb?$AAn?$AA?9?$AAI?$AAN?$AA?$AA@ 100147bc     LIBCMT:winapinls.obj
 0002:000037c8       ??_C@_1M@KPKKNEAH@?$AAp?$AAa?$AA?9?$AAI?$AAN?$AA?$AA@ 100147c8     LIBCMT:winapinls.obj
 0002:000037d4       ??_C@_1M@PJGPPBOG@?$AAg?$AAu?$AA?9?$AAI?$AAN?$AA?$AA@ 100147d4     LIBCMT:winapinls.obj
 0002:000037e0       ??_C@_1M@KMKMOPHI@?$AAt?$AAa?$AA?9?$AAI?$AAN?$AA?$AA@ 100147e0     LIBCMT:winapinls.obj
 0002:000037ec       ??_C@_1M@KFEHEPAC@?$AAt?$AAe?$AA?9?$AAI?$AAN?$AA?$AA@ 100147ec     LIBCMT:winapinls.obj
 0002:000037f8       ??_C@_1M@CDCLMGHI@?$AAk?$AAn?$AA?9?$AAI?$AAN?$AA?$AA@ 100147f8     LIBCMT:winapinls.obj
 0002:00003804       ??_C@_1M@MIODLDKF@?$AAm?$AAl?$AA?9?$AAI?$AAN?$AA?$AA@ 10014804     LIBCMT:winapinls.obj
 0002:00003810       ??_C@_1M@PBIEACPO@?$AAm?$AAr?$AA?9?$AAI?$AAN?$AA?$AA@ 10014810     LIBCMT:winapinls.obj
 0002:0000381c       ??_C@_1M@NIDEAGPH@?$AAs?$AAa?$AA?9?$AAI?$AAN?$AA?$AA@ 1001481c     LIBCMT:winapinls.obj
 0002:00003828       ??_C@_1M@FHIHCBIO@?$AAm?$AAn?$AA?9?$AAM?$AAN?$AA?$AA@ 10014828     LIBCMT:winapinls.obj
 0002:00003834       ??_C@_1M@JAIJPENP@?$AAc?$AAy?$AA?9?$AAG?$AAB?$AA?$AA@ 10014834     LIBCMT:winapinls.obj
 0002:00003840       ??_C@_1M@PHGFBEPN@?$AAg?$AAl?$AA?9?$AAE?$AAS?$AA?$AA@ 10014840     LIBCMT:winapinls.obj
 0002:0000384c       ??_C@_1O@KPIPDNCP@?$AAk?$AAo?$AAk?$AA?9?$AAI?$AAN?$AA?$AA@ 1001484c     LIBCMT:winapinls.obj
 0002:0000385c       ??_C@_1O@KNHJLDJA@?$AAs?$AAy?$AAr?$AA?9?$AAS?$AAY?$AA?$AA@ 1001485c     LIBCMT:winapinls.obj
 0002:0000386c       ??_C@_1O@MKEKBLAH@?$AAd?$AAi?$AAv?$AA?9?$AAM?$AAV?$AA?$AA@ 1001486c     LIBCMT:winapinls.obj
 0002:0000387c       ??_C@_1O@OHDCKDDF@?$AAq?$AAu?$AAz?$AA?9?$AAB?$AAO?$AA?$AA@ 1001487c     LIBCMT:winapinls.obj
 0002:0000388c       ??_C@_1M@LEPJNLFD@?$AAn?$AAs?$AA?9?$AAZ?$AAA?$AA?$AA@ 1001488c     LIBCMT:winapinls.obj
 0002:00003898       ??_C@_1M@OMLEIIJB@?$AAm?$AAi?$AA?9?$AAN?$AAZ?$AA?$AA@ 10014898     LIBCMT:winapinls.obj
 0002:000038a4       ??_C@_1M@PMPEAILG@?$AAa?$AAr?$AA?9?$AAI?$AAQ?$AA?$AA@ 100148a4     LIBCMT:winapinls.obj
 0002:000038b0       ??_C@_1M@CNKPNOEE@?$AAd?$AAe?$AA?9?$AAC?$AAH?$AA?$AA@ 100148b0     LIBCMT:winapinls.obj
 0002:000038bc       ??_C@_1M@LKMGMLKO@?$AAe?$AAn?$AA?9?$AAG?$AAB?$AA?$AA@ 100148bc     LIBCMT:winapinls.obj
 0002:000038c8       ??_C@_1M@PGKJFFGL@?$AAe?$AAs?$AA?9?$AAM?$AAX?$AA?$AA@ 100148c8     LIBCMT:winapinls.obj
 0002:000038d4       ??_C@_1M@DNNANBDC@?$AAf?$AAr?$AA?9?$AAB?$AAE?$AA?$AA@ 100148d4     LIBCMT:winapinls.obj
 0002:000038e0       ??_C@_1M@HLGMDFHM@?$AAi?$AAt?$AA?9?$AAC?$AAH?$AA?$AA@ 100148e0     LIBCMT:winapinls.obj
 0002:000038ec       ??_C@_1M@CLLBGJH@?$AAn?$AAl?$AA?9?$AAB?$AAE?$AA?$AA@ 100148ec     LIBCMT:winapinls.obj
 0002:000038f8       ??_C@_1M@BODBOGLF@?$AAn?$AAn?$AA?9?$AAN?$AAO?$AA?$AA@ 100148f8     LIBCMT:winapinls.obj
 0002:00003904       ??_C@_1M@HFFAHKAD@?$AAp?$AAt?$AA?9?$AAP?$AAT?$AA?$AA@ 10014904     LIBCMT:winapinls.obj
 0002:00003910       ??_C@_1BG@LNOAKHIE@?$AAs?$AAr?$AA?9?$AAS?$AAP?$AA?9?$AAL?$AAa?$AAt?$AAn?$AA?$AA@ 10014910     LIBCMT:winapinls.obj
 0002:00003928       ??_C@_1M@HBMHBGAK@?$AAs?$AAv?$AA?9?$AAF?$AAI?$AA?$AA@ 10014928     LIBCMT:winapinls.obj
 0002:00003934       ??_C@_1BG@DGCJGJBE@?$AAa?$AAz?$AA?9?$AAA?$AAZ?$AA?9?$AAC?$AAy?$AAr?$AAl?$AA?$AA@ 10014934     LIBCMT:winapinls.obj
 0002:0000394c       ??_C@_1M@KEJDAAHB@?$AAs?$AAe?$AA?9?$AAS?$AAE?$AA?$AA@ 1001494c     LIBCMT:winapinls.obj
 0002:00003958       ??_C@_1M@HEIBJJAD@?$AAm?$AAs?$AA?9?$AAB?$AAN?$AA?$AA@ 10014958     LIBCMT:winapinls.obj
 0002:00003964       ??_C@_1BG@PBGJMCEM@?$AAu?$AAz?$AA?9?$AAU?$AAZ?$AA?9?$AAC?$AAy?$AAr?$AAl?$AA?$AA@ 10014964     LIBCMT:winapinls.obj
 0002:0000397c       ??_C@_1O@LAOBCMDF@?$AAq?$AAu?$AAz?$AA?9?$AAE?$AAC?$AA?$AA@ 1001497c     LIBCMT:winapinls.obj
 0002:0000398c       ??_C@_1M@POEEMAIO@?$AAa?$AAr?$AA?9?$AAE?$AAG?$AA?$AA@ 1001498c     LIBCMT:winapinls.obj
 0002:00003998       ??_C@_1M@EFAKDEDL@?$AAz?$AAh?$AA?9?$AAH?$AAK?$AA?$AA@ 10014998     LIBCMT:winapinls.obj
 0002:000039a4       ??_C@_1M@HKKIJHGI@?$AAd?$AAe?$AA?9?$AAA?$AAT?$AA?$AA@ 100149a4     LIBCMT:winapinls.obj
 0002:000039b0       ??_C@_1M@KBFBEHJF@?$AAe?$AAn?$AA?9?$AAA?$AAU?$AA?$AA@ 100149b0     LIBCMT:winapinls.obj
 0002:000039bc       ??_C@_1M@MNPLFAAH@?$AAe?$AAs?$AA?9?$AAE?$AAS?$AA?$AA@ 100149bc     LIBCMT:winapinls.obj
 0002:000039c8       ??_C@_1M@HJOOJFMA@?$AAf?$AAr?$AA?9?$AAC?$AAA?$AA?$AA@ 100149c8     LIBCMT:winapinls.obj
 0002:000039d4       ??_C@_1BG@JPOFPNAB@?$AAs?$AAr?$AA?9?$AAS?$AAP?$AA?9?$AAC?$AAy?$AAr?$AAl?$AA?$AA@ 100149d4     LIBCMT:winapinls.obj
 0002:000039ec       ??_C@_1M@LNFOCMOB@?$AAs?$AAe?$AA?9?$AAF?$AAI?$AA?$AA@ 100149ec     LIBCMT:winapinls.obj
 0002:000039f8       ??_C@_1O@MGJBOAMB@?$AAq?$AAu?$AAz?$AA?9?$AAP?$AAE?$AA?$AA@ 100149f8     LIBCMT:winapinls.obj
 0002:00003a08       ??_C@_1M@GJINLBOK@?$AAa?$AAr?$AA?9?$AAL?$AAY?$AA?$AA@ 10014a08     LIBCMT:winapinls.obj
 0002:00003a14       ??_C@_1M@GGMNHJNL@?$AAz?$AAh?$AA?9?$AAS?$AAG?$AA?$AA@ 10014a14     LIBCMT:winapinls.obj
 0002:00003a20       ??_C@_1M@HOIKODND@?$AAd?$AAe?$AA?9?$AAL?$AAU?$AA?$AA@ 10014a20     LIBCMT:winapinls.obj
 0002:00003a2c       ??_C@_1M@DDOCCGFG@?$AAe?$AAn?$AA?9?$AAC?$AAA?$AA?$AA@ 10014a2c     LIBCMT:winapinls.obj
 0002:00003a38       ??_C@_1M@BNOEMJLF@?$AAe?$AAs?$AA?9?$AAG?$AAT?$AA?$AA@ 10014a38     LIBCMT:winapinls.obj
 0002:00003a44       ??_C@_1M@EOGNKEK@?$AAf?$AAr?$AA?9?$AAC?$AAH?$AA?$AA@ 10014a44     LIBCMT:winapinls.obj
 0002:00003a50       ??_C@_1M@FLIDJFHL@?$AAh?$AAr?$AA?9?$AAB?$AAA?$AA?$AA@ 10014a50     LIBCMT:winapinls.obj
 0002:00003a5c       ??_C@_1O@FMCELNAJ@?$AAs?$AAm?$AAj?$AA?9?$AAN?$AAO?$AA?$AA@ 10014a5c     LIBCMT:winapinls.obj
 0002:00003a6c       ??_C@_1M@JHGLJMGJ@?$AAa?$AAr?$AA?9?$AAD?$AAZ?$AA?$AA@ 10014a6c     LIBCMT:winapinls.obj
 0002:00003a78       ??_C@_1M@JKKFDCNP@?$AAz?$AAh?$AA?9?$AAM?$AAO?$AA?$AA@ 10014a78     LIBCMT:winapinls.obj
 0002:00003a84       ??_C@_1M@GEEFALPE@?$AAd?$AAe?$AA?9?$AAL?$AAI?$AA?$AA@ 10014a84     LIBCMT:winapinls.obj
 0002:00003a90       ??_C@_1M@IGEOFBG@?$AAe?$AAn?$AA?9?$AAN?$AAZ?$AA?$AA@ 10014a90     LIBCMT:winapinls.obj
 0002:00003a9c       ??_C@_1M@KDBONEHP@?$AAe?$AAs?$AA?9?$AAC?$AAR?$AA?$AA@ 10014a9c     LIBCMT:winapinls.obj
 0002:00003aa8       ??_C@_1M@FHMDOHNN@?$AAf?$AAr?$AA?9?$AAL?$AAU?$AA?$AA@ 10014aa8     LIBCMT:winapinls.obj
 0002:00003ab4       ??_C@_1BG@NFKKMAFG@?$AAb?$AAs?$AA?9?$AAB?$AAA?$AA?9?$AAL?$AAa?$AAt?$AAn?$AA?$AA@ 10014ab4     LIBCMT:winapinls.obj
 0002:00003acc       ??_C@_1O@IMNBEMCI@?$AAs?$AAm?$AAj?$AA?9?$AAS?$AAE?$AA?$AA@ 10014acc     LIBCMT:winapinls.obj
 0002:00003adc       ??_C@_1M@DHHMBNDP@?$AAa?$AAr?$AA?9?$AAM?$AAA?$AA?$AA@ 10014adc     LIBCMT:winapinls.obj
 0002:00003ae8       ??_C@_1M@BNBLJCGH@?$AAe?$AAn?$AA?9?$AAI?$AAE?$AA?$AA@ 10014ae8     LIBCMT:winapinls.obj
 0002:00003af4       ??_C@_1M@GEPAFMDL@?$AAe?$AAs?$AA?9?$AAP?$AAA?$AA?$AA@ 10014af4     LIBCMT:winapinls.obj
 0002:00003b00       ??_C@_1M@OJONDMDL@?$AAf?$AAr?$AA?9?$AAM?$AAC?$AA?$AA@ 10014b00     LIBCMT:winapinls.obj
 0002:00003b0c       ??_C@_1BG@OBCNFJB@?$AAs?$AAr?$AA?9?$AAB?$AAA?$AA?9?$AAL?$AAa?$AAt?$AAn?$AA?$AA@ 10014b0c     LIBCMT:winapinls.obj
 0002:00003b24       ??_C@_1O@KEMEEGPO@?$AAs?$AAm?$AAa?$AA?9?$AAN?$AAO?$AA?$AA@ 10014b24     LIBCMT:winapinls.obj
 0002:00003b34       ??_C@_1M@ELMGFODK@?$AAa?$AAr?$AA?9?$AAT?$AAN?$AA?$AA@ 10014b34     LIBCMT:winapinls.obj
 0002:00003b40       ??_C@_1M@BHDLHFAF@?$AAe?$AAn?$AA?9?$AAZ?$AAA?$AA?$AA@ 10014b40     LIBCMT:winapinls.obj
 0002:00003b4c       ??_C@_1M@BMGIGLIF@?$AAe?$AAs?$AA?9?$AAD?$AAO?$AA?$AA@ 10014b4c     LIBCMT:winapinls.obj
 0002:00003b58       ??_C@_1BG@CMBHIPBE@?$AAs?$AAr?$AA?9?$AAB?$AAA?$AA?9?$AAC?$AAy?$AAr?$AAl?$AA?$AA@ 10014b58     LIBCMT:winapinls.obj
 0002:00003b70       ??_C@_1O@HEDBLHNP@?$AAs?$AAm?$AAa?$AA?9?$AAS?$AAE?$AA?$AA@ 10014b70     LIBCMT:winapinls.obj
 0002:00003b80       ??_C@_1M@DAGCADIM@?$AAa?$AAr?$AA?9?$AAO?$AAM?$AA?$AA@ 10014b80     LIBCMT:winapinls.obj
 0002:00003b8c       ??_C@_1M@FODLMICG@?$AAe?$AAn?$AA?9?$AAJ?$AAM?$AA?$AA@ 10014b8c     LIBCMT:winapinls.obj
 0002:00003b98       ??_C@_1M@DNMLCIHB@?$AAe?$AAs?$AA?9?$AAV?$AAE?$AA?$AA@ 10014b98     LIBCMT:winapinls.obj
 0002:00003ba4       ??_C@_1O@EOKHMKJK@?$AAs?$AAm?$AAs?$AA?9?$AAF?$AAI?$AA?$AA@ 10014ba4     LIBCMT:winapinls.obj
 0002:00003bb4       ??_C@_1M@CAFJMKOF@?$AAa?$AAr?$AA?9?$AAY?$AAE?$AA?$AA@ 10014bb4     LIBCMT:winapinls.obj
 0002:00003bc0       ??_C@_1M@CBFHIJLI@?$AAe?$AAn?$AA?9?$AAC?$AAB?$AA?$AA@ 10014bc0     LIBCMT:winapinls.obj
 0002:00003bcc       ??_C@_1M@BGNFLDN@?$AAe?$AAs?$AA?9?$AAC?$AAO?$AA?$AA@ 10014bcc     LIBCMT:winapinls.obj
 0002:00003bd8       ??_C@_1O@JMPHMAMC@?$AAs?$AAm?$AAn?$AA?9?$AAF?$AAI?$AA?$AA@ 10014bd8     LIBCMT:winapinls.obj
 0002:00003be8       ??_C@_1M@JLANABKE@?$AAa?$AAr?$AA?9?$AAS?$AAY?$AA?$AA@ 10014be8     LIBCMT:winapinls.obj
 0002:00003bf4       ??_C@_1M@HPKGCFGN@?$AAe?$AAn?$AA?9?$AAB?$AAZ?$AA?$AA@ 10014bf4     LIBCMT:winapinls.obj
 0002:00003c00       ??_C@_1M@OLJCMLGM@?$AAe?$AAs?$AA?9?$AAP?$AAE?$AA?$AA@ 10014c00     LIBCMT:winapinls.obj
 0002:00003c0c       ??_C@_1M@MKKGFKLE@?$AAa?$AAr?$AA?9?$AAJ?$AAO?$AA?$AA@ 10014c0c     LIBCMT:winapinls.obj
 0002:00003c18       ??_C@_1M@EKPGLDNI@?$AAe?$AAn?$AA?9?$AAT?$AAT?$AA?$AA@ 10014c18     LIBCMT:winapinls.obj
 0002:00003c24       ??_C@_1M@OONGHFHE@?$AAe?$AAs?$AA?9?$AAA?$AAR?$AA?$AA@ 10014c24     LIBCMT:winapinls.obj
 0002:00003c30       ??_C@_1M@OOJFGBHE@?$AAa?$AAr?$AA?9?$AAL?$AAB?$AA?$AA@ 10014c30     LIBCMT:winapinls.obj
 0002:00003c3c       ??_C@_1M@GCEJHNEG@?$AAe?$AAn?$AA?9?$AAZ?$AAW?$AA?$AA@ 10014c3c     LIBCMT:winapinls.obj
 0002:00003c48       ??_C@_1M@JNOCAHJI@?$AAe?$AAs?$AA?9?$AAE?$AAC?$AA?$AA@ 10014c48     LIBCMT:winapinls.obj
 0002:00003c54       ??_C@_1M@JEFHPGGB@?$AAa?$AAr?$AA?9?$AAK?$AAW?$AA?$AA@ 10014c54     LIBCMT:winapinls.obj
 0002:00003c60       ??_C@_1M@MLKIBJOJ@?$AAe?$AAn?$AA?9?$AAP?$AAH?$AA?$AA@ 10014c60     LIBCMT:winapinls.obj
 0002:00003c6c       ??_C@_1M@BDNIPEND@?$AAe?$AAs?$AA?9?$AAC?$AAL?$AA?$AA@ 10014c6c     LIBCMT:winapinls.obj
 0002:00003c78       ??_C@_1M@MPNMEKBD@?$AAa?$AAr?$AA?9?$AAA?$AAE?$AA?$AA@ 10014c78     LIBCMT:winapinls.obj
 0002:00003c84       ??_C@_1M@KBJALCPI@?$AAe?$AAs?$AA?9?$AAU?$AAY?$AA?$AA@ 10014c84     LIBCMT:winapinls.obj
 0002:00003c90       ??_C@_1M@LLCCOAGA@?$AAa?$AAr?$AA?9?$AAB?$AAH?$AA?$AA@ 10014c90     LIBCMT:winapinls.obj
 0002:00003c9c       ??_C@_1M@PBFNCDEL@?$AAe?$AAs?$AA?9?$AAP?$AAY?$AA?$AA@ 10014c9c     LIBCMT:winapinls.obj
 0002:00003ca8       ??_C@_1M@EDGINPNP@?$AAa?$AAr?$AA?9?$AAQ?$AAA?$AA?$AA@ 10014ca8     LIBCMT:winapinls.obj
 0002:00003cb4       ??_C@_1M@MKDBIIJI@?$AAe?$AAs?$AA?9?$AAB?$AAO?$AA?$AA@ 10014cb4     LIBCMT:winapinls.obj
 0002:00003cc0       ??_C@_1M@CPKKEBLD@?$AAe?$AAs?$AA?9?$AAS?$AAV?$AA?$AA@ 10014cc0     LIBCMT:winapinls.obj
 0002:00003ccc       ??_C@_1M@NDBGMMJL@?$AAe?$AAs?$AA?9?$AAH?$AAN?$AA?$AA@ 10014ccc     LIBCMT:winapinls.obj
 0002:00003cd8       ??_C@_1M@JIJIBHDP@?$AAe?$AAs?$AA?9?$AAN?$AAI?$AA?$AA@ 10014cd8     LIBCMT:winapinls.obj
 0002:00003ce4       ??_C@_1M@CGFMKEEK@?$AAe?$AAs?$AA?9?$AAP?$AAR?$AA?$AA@ 10014ce4     LIBCMT:winapinls.obj
 0002:00003cf0       ??_C@_1O@ICJHKIIK@?$AAz?$AAh?$AA?9?$AAC?$AAH?$AAT?$AA?$AA@ 10014cf0     LIBCMT:winapinls.obj
 0002:00003d00       ??_C@_15CLNEJCE@?$AAs?$AAr?$AA?$AA@ 10014d00     LIBCMT:winapinls.obj
 0002:00003d08       ??_C@_1M@KAHEKEIG@?$AAa?$AAf?$AA?9?$AAz?$AAa?$AA?$AA@ 10014d08     LIBCMT:winapinls.obj
 0002:00003d14       ??_C@_1M@GIECOABL@?$AAa?$AAr?$AA?9?$AAa?$AAe?$AA?$AA@ 10014d14     LIBCMT:winapinls.obj
 0002:00003d20       ??_C@_1M@BMLMEKGI@?$AAa?$AAr?$AA?9?$AAb?$AAh?$AA?$AA@ 10014d20     LIBCMT:winapinls.obj
 0002:00003d2c       ??_C@_1M@DAPFDGGB@?$AAa?$AAr?$AA?9?$AAd?$AAz?$AA?$AA@ 10014d2c     LIBCMT:winapinls.obj
 0002:00003d38       ??_C@_1M@FJNKGKIG@?$AAa?$AAr?$AA?9?$AAe?$AAg?$AA?$AA@ 10014d38     LIBCMT:winapinls.obj
 0002:00003d44       ??_C@_1M@FLGKKCLO@?$AAa?$AAr?$AA?9?$AAi?$AAq?$AA?$AA@ 10014d44     LIBCMT:winapinls.obj
 0002:00003d50       ??_C@_1M@GNDIPALM@?$AAa?$AAr?$AA?9?$AAj?$AAo?$AA?$AA@ 10014d50     LIBCMT:winapinls.obj
 0002:00003d5c       ??_C@_1M@DDMJFMGJ@?$AAa?$AAr?$AA?9?$AAk?$AAw?$AA?$AA@ 10014d5c     LIBCMT:winapinls.obj
 0002:00003d68       ??_C@_1M@EJALMLHM@?$AAa?$AAr?$AA?9?$AAl?$AAb?$AA?$AA@ 10014d68     LIBCMT:winapinls.obj
 0002:00003d74       ??_C@_1M@MOBDBLOC@?$AAa?$AAr?$AA?9?$AAl?$AAy?$AA?$AA@ 10014d74     LIBCMT:winapinls.obj
 0002:00003d80       ??_C@_1M@JAOCLHDH@?$AAa?$AAr?$AA?9?$AAm?$AAa?$AA?$AA@ 10014d80     LIBCMT:winapinls.obj
 0002:00003d8c       ??_C@_1M@JHPMKJIE@?$AAa?$AAr?$AA?9?$AAo?$AAm?$AA?$AA@ 10014d8c     LIBCMT:winapinls.obj
 0002:00003d98       ??_C@_1M@OEPGHFNH@?$AAa?$AAr?$AA?9?$AAq?$AAa?$AA?$AA@ 10014d98     LIBCMT:winapinls.obj
 0002:00003da4       ??_C@_1M@KJDONENM@?$AAa?$AAr?$AA?9?$AAs?$AAa?$AA?$AA@ 10014da4     LIBCMT:winapinls.obj
 0002:00003db0       ??_C@_1M@DMJDKLKM@?$AAa?$AAr?$AA?9?$AAs?$AAy?$AA?$AA@ 10014db0     LIBCMT:winapinls.obj
 0002:00003dbc       ??_C@_1M@OMFIPEDC@?$AAa?$AAr?$AA?9?$AAt?$AAn?$AA?$AA@ 10014dbc     LIBCMT:winapinls.obj
 0002:00003dc8       ??_C@_1M@IHMHGAON@?$AAa?$AAr?$AA?9?$AAy?$AAe?$AA?$AA@ 10014dc8     LIBCMT:winapinls.obj
 0002:00003dd4       ??_C@_1BG@KDCPGJGB@?$AAa?$AAz?$AA?9?$AAa?$AAz?$AA?9?$AAc?$AAy?$AAr?$AAl?$AA?$AA@ 10014dd4     LIBCMT:winapinls.obj
 0002:00003dec       ??_C@_1BG@IBCKDDOE@?$AAa?$AAz?$AA?9?$AAa?$AAz?$AA?9?$AAl?$AAa?$AAt?$AAn?$AA?$AA@ 10014dec     LIBCMT:winapinls.obj
 0002:00003e04       ??_C@_1M@EGPFDCPD@?$AAb?$AAe?$AA?9?$AAb?$AAy?$AA?$AA@ 10014e04     LIBCMT:winapinls.obj
 0002:00003e10       ??_C@_1M@PCMGMCGC@?$AAb?$AAg?$AA?9?$AAb?$AAg?$AA?$AA@ 10014e10     LIBCMT:winapinls.obj
 0002:00003e1c       ??_C@_1M@BJBMFGOB@?$AAb?$AAn?$AA?9?$AAi?$AAn?$AA?$AA@ 10014e1c     LIBCMT:winapinls.obj
 0002:00003e28       ??_C@_1BG@EAKMMACD@?$AAb?$AAs?$AA?9?$AAb?$AAa?$AA?9?$AAl?$AAa?$AAt?$AAn?$AA?$AA@ 10014e28     LIBCMT:winapinls.obj
 0002:00003e40       ??_C@_1M@KGADAODK@?$AAc?$AAa?$AA?9?$AAe?$AAs?$AA?$AA@ 10014e40     LIBCMT:winapinls.obj
 0002:00003e4c       ??_C@_1M@COAJPDHI@?$AAc?$AAs?$AA?9?$AAc?$AAz?$AA?$AA@ 10014e4c     LIBCMT:winapinls.obj
 0002:00003e58       ??_C@_1M@DHBHFONH@?$AAc?$AAy?$AA?9?$AAg?$AAb?$AA?$AA@ 10014e58     LIBCMT:winapinls.obj
 0002:00003e64       ??_C@_1M@IMGKELGA@?$AAd?$AAa?$AA?9?$AAd?$AAk?$AA?$AA@ 10014e64     LIBCMT:winapinls.obj
 0002:00003e70       ??_C@_1M@NNDGDNGA@?$AAd?$AAe?$AA?9?$AAa?$AAt?$AA?$AA@ 10014e70     LIBCMT:winapinls.obj
 0002:00003e7c       ??_C@_1M@IKDBHEEM@?$AAd?$AAe?$AA?9?$AAc?$AAh?$AA?$AA@ 10014e7c     LIBCMT:winapinls.obj
 0002:00003e88       ??_C@_1M@GFFOJMCJ@?$AAd?$AAe?$AA?9?$AAd?$AAe?$AA?$AA@ 10014e88     LIBCMT:winapinls.obj
 0002:00003e94       ??_C@_1M@MDNLKBPM@?$AAd?$AAe?$AA?9?$AAl?$AAi?$AA?$AA@ 10014e94     LIBCMT:winapinls.obj
 0002:00003ea0       ??_C@_1M@NJBEEJNL@?$AAd?$AAe?$AA?9?$AAl?$AAu?$AA?$AA@ 10014ea0     LIBCMT:winapinls.obj
 0002:00003eac       ??_C@_1O@GNNELBAP@?$AAd?$AAi?$AAv?$AA?9?$AAm?$AAv?$AA?$AA@ 10014eac     LIBCMT:winapinls.obj
 0002:00003ebc       ??_C@_1M@EJLEOGAE@?$AAe?$AAl?$AA?9?$AAg?$AAr?$AA?$AA@ 10014ebc     LIBCMT:winapinls.obj
 0002:00003ec8       ??_C@_1M@GMPONJN@?$AAe?$AAn?$AA?9?$AAa?$AAu?$AA?$AA@ 10014ec8     LIBCMT:winapinls.obj
 0002:00003ed4       ??_C@_1M@NIDIIPGF@?$AAe?$AAn?$AA?9?$AAb?$AAz?$AA?$AA@ 10014ed4     LIBCMT:winapinls.obj
 0002:00003ee0       ??_C@_1M@JEHMIMFO@?$AAe?$AAn?$AA?9?$AAc?$AAa?$AA?$AA@ 10014ee0     LIBCMT:winapinls.obj
 0002:00003eec       ??_C@_1M@IGMJCDLA@?$AAe?$AAn?$AA?9?$AAc?$AAb?$AA?$AA@ 10014eec     LIBCMT:winapinls.obj
 0002:00003ef8       ??_C@_1M@BNFIGBKG@?$AAe?$AAn?$AA?9?$AAg?$AAb?$AA?$AA@ 10014ef8     LIBCMT:winapinls.obj
 0002:00003f04       ??_C@_1M@LKIFDIGP@?$AAe?$AAn?$AA?9?$AAi?$AAe?$AA?$AA@ 10014f04     LIBCMT:winapinls.obj
 0002:00003f10       ??_C@_1M@PJKFGCCO@?$AAe?$AAn?$AA?9?$AAj?$AAm?$AA?$AA@ 10014f10     LIBCMT:winapinls.obj
 0002:00003f1c       ??_C@_1M@KPPKEPBO@?$AAe?$AAn?$AA?9?$AAn?$AAz?$AA?$AA@ 10014f1c     LIBCMT:winapinls.obj
 0002:00003f28       ??_C@_1M@GMDGLDOB@?$AAe?$AAn?$AA?9?$AAp?$AAh?$AA?$AA@ 10014f28     LIBCMT:winapinls.obj
 0002:00003f34       ??_C@_1M@ONGIBJNA@?$AAe?$AAn?$AA?9?$AAt?$AAt?$AA?$AA@ 10014f34     LIBCMT:winapinls.obj
 0002:00003f40       ??_C@_1M@LLODPCMM@?$AAe?$AAn?$AA?9?$AAu?$AAs?$AA?$AA@ 10014f40     LIBCMT:winapinls.obj
 0002:00003f4c       ??_C@_1M@LAKFNPAN@?$AAe?$AAn?$AA?9?$AAz?$AAa?$AA?$AA@ 10014f4c     LIBCMT:winapinls.obj
 0002:00003f58       ??_C@_1M@MFNHNHEO@?$AAe?$AAn?$AA?9?$AAz?$AAw?$AA?$AA@ 10014f58     LIBCMT:winapinls.obj
 0002:00003f64       ??_C@_1M@EJEINPHM@?$AAe?$AAs?$AA?9?$AAa?$AAr?$AA?$AA@ 10014f64     LIBCMT:winapinls.obj
 0002:00003f70       ??_C@_1M@GNKPCCJA@?$AAe?$AAs?$AA?9?$AAb?$AAo?$AA?$AA@ 10014f70     LIBCMT:winapinls.obj
 0002:00003f7c       ??_C@_1M@LEEGFONL@?$AAe?$AAs?$AA?9?$AAc?$AAl?$AA?$AA@ 10014f7c     LIBCMT:winapinls.obj
 0002:00003f88       ??_C@_1M@KGPDPBDF@?$AAe?$AAs?$AA?9?$AAc?$AAo?$AA?$AA@ 10014f88     LIBCMT:winapinls.obj
 0002:00003f94       ??_C@_1M@EIAHOHH@?$AAe?$AAs?$AA?9?$AAc?$AAr?$AA?$AA@ 10014f94     LIBCMT:winapinls.obj
 0002:00003fa0       ??_C@_1M@LLPGMBIN@?$AAe?$AAs?$AA?9?$AAd?$AAo?$AA?$AA@ 10014fa0     LIBCMT:winapinls.obj
 0002:00003fac       ??_C@_1M@DKHMKNJA@?$AAe?$AAs?$AA?9?$AAe?$AAc?$AA?$AA@ 10014fac     LIBCMT:winapinls.obj
 0002:00003fb8       ??_C@_1M@GKGFPKAP@?$AAe?$AAs?$AA?9?$AAe?$AAs?$AA?$AA@ 10014fb8     LIBCMT:winapinls.obj
 0002:00003fc4       ??_C@_1M@LKHKGDLN@?$AAe?$AAs?$AA?9?$AAg?$AAt?$AA?$AA@ 10014fc4     LIBCMT:winapinls.obj
 0002:00003fd0       ??_C@_1M@HEIIGGJD@?$AAe?$AAs?$AA?9?$AAh?$AAn?$AA?$AA@ 10014fd0     LIBCMT:winapinls.obj
 0002:00003fdc       ??_C@_1M@FBDHPPGD@?$AAe?$AAs?$AA?9?$AAm?$AAx?$AA?$AA@ 10014fdc     LIBCMT:winapinls.obj
 0002:00003fe8       ??_C@_1M@DPAGLNDH@?$AAe?$AAs?$AA?9?$AAn?$AAi?$AA?$AA@ 10014fe8     LIBCMT:winapinls.obj
 0002:00003ff4       ??_C@_1M@MDGOPGDD@?$AAe?$AAs?$AA?9?$AAp?$AAa?$AA?$AA@ 10014ff4     LIBCMT:winapinls.obj
 0002:00004000       ??_C@_1M@EMAMGBGE@?$AAe?$AAs?$AA?9?$AAp?$AAe?$AA?$AA@ 10015000     LIBCMT:winapinls.obj
 0002:0000400c       ??_C@_1M@IBMCAOEC@?$AAe?$AAs?$AA?9?$AAp?$AAr?$AA?$AA@ 1001500c     LIBCMT:winapinls.obj
 0002:00004018       ??_C@_1M@FGMDIJED@?$AAe?$AAs?$AA?9?$AAp?$AAy?$AA?$AA@ 10015018     LIBCMT:winapinls.obj
 0002:00004024       ??_C@_1M@IIDEOLLL@?$AAe?$AAs?$AA?9?$AAs?$AAv?$AA?$AA@ 10015024     LIBCMT:winapinls.obj
 0002:00004030       ??_C@_1M@GAOBIPA@?$AAe?$AAs?$AA?9?$AAu?$AAy?$AA?$AA@ 10015030     LIBCMT:winapinls.obj
 0002:0000403c       ??_C@_1M@JKFFICHJ@?$AAe?$AAs?$AA?9?$AAv?$AAe?$AA?$AA@ 1001503c     LIBCMT:winapinls.obj
 0002:00004048       ??_C@_1M@PNMLOJDF@?$AAe?$AAt?$AA?9?$AAe?$AAe?$AA?$AA@ 10015048     LIBCMT:winapinls.obj
 0002:00004054       ??_C@_1M@GHHLIKEI@?$AAe?$AAu?$AA?9?$AAe?$AAs?$AA?$AA@ 10015054     LIBCMT:winapinls.obj
 0002:00004060       ??_C@_1M@PBNONODE@?$AAf?$AAa?$AA?9?$AAi?$AAr?$AA?$AA@ 10015060     LIBCMT:winapinls.obj
 0002:0000406c       ??_C@_1M@JEEHPMIL@?$AAf?$AAi?$AA?9?$AAf?$AAi?$AA?$AA@ 1001506c     LIBCMT:winapinls.obj
 0002:00004078       ??_C@_1M@LMDCNDBA@?$AAf?$AAo?$AA?9?$AAf?$AAo?$AA?$AA@ 10015078     LIBCMT:winapinls.obj
 0002:00004084       ??_C@_1M@JKEOHLDK@?$AAf?$AAr?$AA?9?$AAb?$AAe?$AA?$AA@ 10015084     LIBCMT:winapinls.obj
 0002:00004090       ??_C@_1M@NOHADPMI@?$AAf?$AAr?$AA?9?$AAc?$AAa?$AA?$AA@ 10015090     LIBCMT:winapinls.obj
 0002:0000409c       ??_C@_1M@KDHIHAEC@?$AAf?$AAr?$AA?9?$AAc?$AAh?$AA?$AA@ 1001509c     LIBCMT:winapinls.obj
 0002:000040a8       ??_C@_1M@MMBBFGAK@?$AAf?$AAr?$AA?9?$AAf?$AAr?$AA?$AA@ 100150a8     LIBCMT:winapinls.obj
 0002:000040b4       ??_C@_1M@PAFNENNF@?$AAf?$AAr?$AA?9?$AAl?$AAu?$AA?$AA@ 100150b4     LIBCMT:winapinls.obj
 0002:000040c0       ??_C@_1M@EOHDJGDD@?$AAf?$AAr?$AA?9?$AAm?$AAc?$AA?$AA@ 100150c0     LIBCMT:winapinls.obj
 0002:000040cc       ??_C@_1M@FAPLLOPF@?$AAg?$AAl?$AA?9?$AAe?$AAs?$AA?$AA@ 100150cc     LIBCMT:winapinls.obj
 0002:000040d8       ??_C@_1M@FOPBFLOO@?$AAg?$AAu?$AA?9?$AAi?$AAn?$AA?$AA@ 100150d8     LIBCMT:winapinls.obj
 0002:000040e4       ??_C@_1M@KBMCINPM@?$AAh?$AAe?$AA?9?$AAi?$AAl?$AA?$AA@ 100150e4     LIBCMT:winapinls.obj
 0002:000040f0       ??_C@_1M@BBPHKFPJ@?$AAh?$AAi?$AA?9?$AAi?$AAn?$AA?$AA@ 100150f0     LIBCMT:winapinls.obj
 0002:000040fc       ??_C@_1M@PMBNDPHD@?$AAh?$AAr?$AA?9?$AAb?$AAa?$AA?$AA@ 100150fc     LIBCMT:winapinls.obj
 0002:00004108       ??_C@_1M@BPCKOEGE@?$AAh?$AAr?$AA?9?$AAh?$AAr?$AA?$AA@ 10015108     LIBCMT:winapinls.obj
 0002:00004114       ??_C@_1M@GACBMHKE@?$AAh?$AAu?$AA?9?$AAh?$AAu?$AA?$AA@ 10015114     LIBCMT:winapinls.obj
 0002:00004120       ??_C@_1M@MILPAJJC@?$AAh?$AAy?$AA?9?$AAa?$AAm?$AA?$AA@ 10015120     LIBCMT:winapinls.obj
 0002:0000412c       ??_C@_1M@BABBICEC@?$AAi?$AAd?$AA?9?$AAi?$AAd?$AA?$AA@ 1001512c     LIBCMT:winapinls.obj
 0002:00004138       ??_C@_1M@BIKNHHPF@?$AAi?$AAs?$AA?9?$AAi?$AAs?$AA?$AA@ 10015138     LIBCMT:winapinls.obj
 0002:00004144       ??_C@_1M@NMPCJPHE@?$AAi?$AAt?$AA?9?$AAc?$AAh?$AA?$AA@ 10015144     LIBCMT:winapinls.obj
 0002:00004150       ??_C@_1M@GHKGFEDF@?$AAi?$AAt?$AA?9?$AAi?$AAt?$AA?$AA@ 10015150     LIBCMT:winapinls.obj
 0002:0000415c       ??_C@_1M@NIEJCJJA@?$AAj?$AAa?$AA?9?$AAj?$AAp?$AA?$AA@ 1001515c     LIBCMT:winapinls.obj
 0002:00004168       ??_C@_1M@JILFNBIM@?$AAk?$AAa?$AA?9?$AAg?$AAe?$AA?$AA@ 10015168     LIBCMT:winapinls.obj
 0002:00004174       ??_C@_1M@PACPMGPH@?$AAk?$AAk?$AA?9?$AAk?$AAz?$AA?$AA@ 10015174     LIBCMT:winapinls.obj
 0002:00004180       ??_C@_1M@IELFGMHA@?$AAk?$AAn?$AA?9?$AAi?$AAn?$AA?$AA@ 10015180     LIBCMT:winapinls.obj
 0002:0000418c       ??_C@_1O@IBBJHCH@?$AAk?$AAo?$AAk?$AA?9?$AAi?$AAn?$AA?$AA@ 1001518c     LIBCMT:winapinls.obj
 0002:0000419c       ??_C@_1M@DMHAEOGC@?$AAk?$AAo?$AA?9?$AAk?$AAr?$AA?$AA@ 1001519c     LIBCMT:winapinls.obj
 0002:000041a8       ??_C@_1M@HBAHBIGA@?$AAk?$AAy?$AA?9?$AAk?$AAg?$AA?$AA@ 100151a8     LIBCMT:winapinls.obj
 0002:000041b4       ??_C@_1M@KPMILCJG@?$AAl?$AAt?$AA?9?$AAl?$AAt?$AA?$AA@ 100151b4     LIBCMT:winapinls.obj
 0002:000041c0       ??_C@_1M@BDEKKCA@?$AAl?$AAv?$AA?9?$AAl?$AAv?$AA?$AA@ 100151c0     LIBCMT:winapinls.obj
 0002:000041cc       ??_C@_1M@ELCKCCJJ@?$AAm?$AAi?$AA?9?$AAn?$AAz?$AA?$AA@ 100151cc     LIBCMT:winapinls.obj
 0002:000041d8       ??_C@_1M@CBOOLAPA@?$AAm?$AAk?$AA?9?$AAm?$AAk?$AA?$AA@ 100151d8     LIBCMT:winapinls.obj
 0002:000041e4       ??_C@_1M@GPHNBJKN@?$AAm?$AAl?$AA?9?$AAi?$AAn?$AA?$AA@ 100151e4     LIBCMT:winapinls.obj
 0002:000041f0       ??_C@_1M@PABJILIG@?$AAm?$AAn?$AA?9?$AAm?$AAn?$AA?$AA@ 100151f0     LIBCMT:winapinls.obj
 0002:000041fc       ??_C@_1M@FGBKKIPG@?$AAm?$AAr?$AA?9?$AAi?$AAn?$AA?$AA@ 100151fc     LIBCMT:winapinls.obj
 0002:00004208       ??_C@_1M@NDBPDDAL@?$AAm?$AAs?$AA?9?$AAb?$AAn?$AA?$AA@ 10015208     LIBCMT:winapinls.obj
 0002:00004214       ??_C@_1M@OPIHOOPI@?$AAm?$AAs?$AA?9?$AAm?$AAy?$AA?$AA@ 10015214     LIBCMT:winapinls.obj
 0002:00004220       ??_C@_1M@PPDBCNFM@?$AAm?$AAt?$AA?9?$AAm?$AAt?$AA?$AA@ 10015220     LIBCMT:winapinls.obj
 0002:0000422c       ??_C@_1M@KDJDKMDD@?$AAn?$AAb?$AA?9?$AAn?$AAo?$AA?$AA@ 1001522c     LIBCMT:winapinls.obj
 0002:00004238       ??_C@_1M@KFCFLMJP@?$AAn?$AAl?$AA?9?$AAb?$AAe?$AA?$AA@ 10015238     LIBCMT:winapinls.obj
 0002:00004244       ??_C@_1M@KPOPDDGO@?$AAn?$AAl?$AA?9?$AAn?$AAl?$AA?$AA@ 10015244     LIBCMT:winapinls.obj
 0002:00004250       ??_C@_1M@LJKPEMLN@?$AAn?$AAn?$AA?9?$AAn?$AAo?$AA?$AA@ 10015250     LIBCMT:winapinls.obj
 0002:0000425c       ??_C@_1M@BDGHHBFL@?$AAn?$AAs?$AA?9?$AAz?$AAa?$AA?$AA@ 1001525c     LIBCMT:winapinls.obj
 0002:00004268       ??_C@_1M@IDEHOAP@?$AAp?$AAa?$AA?9?$AAi?$AAn?$AA?$AA@ 10015268     LIBCMT:winapinls.obj
 0002:00004274       ??_C@_1M@HDBKGOGH@?$AAp?$AAl?$AA?9?$AAp?$AAl?$AA?$AA@ 10015274     LIBCMT:winapinls.obj
 0002:00004280       ??_C@_1M@LJLLCMEH@?$AAp?$AAt?$AA?9?$AAb?$AAr?$AA?$AA@ 10015280     LIBCMT:winapinls.obj
 0002:0000428c       ??_C@_1M@NCMONAAL@?$AAp?$AAt?$AA?9?$AAp?$AAt?$AA?$AA@ 1001528c     LIBCMT:winapinls.obj
 0002:00004298       ??_C@_1O@EAKMAJDN@?$AAq?$AAu?$AAz?$AA?9?$AAb?$AAo?$AA?$AA@ 10015298     LIBCMT:winapinls.obj
 0002:000042a8       ??_C@_1O@BHHPIGDN@?$AAq?$AAu?$AAz?$AA?9?$AAe?$AAc?$AA?$AA@ 100152a8     LIBCMT:winapinls.obj
 0002:000042b8       ??_C@_1O@GBAPEKMJ@?$AAq?$AAu?$AAz?$AA?9?$AAp?$AAe?$AA?$AA@ 100152b8     LIBCMT:winapinls.obj
 0002:000042c8       ??_C@_1M@CLGLEFBO@?$AAr?$AAo?$AA?9?$AAr?$AAo?$AA?$AA@ 100152c8     LIBCMT:winapinls.obj
 0002:000042d4       ??_C@_1M@CEEDODME@?$AAr?$AAu?$AA?9?$AAr?$AAu?$AA?$AA@ 100152d4     LIBCMT:winapinls.obj
 0002:000042e0       ??_C@_1M@HPKKKMPP@?$AAs?$AAa?$AA?9?$AAi?$AAn?$AA?$AA@ 100152e0     LIBCMT:winapinls.obj
 0002:000042ec       ??_C@_1M@BKMAIGOJ@?$AAs?$AAe?$AA?9?$AAf?$AAi?$AA?$AA@ 100152ec     LIBCMT:winapinls.obj
 0002:000042f8       ??_C@_1M@NDPIFLFI@?$AAs?$AAe?$AA?9?$AAn?$AAo?$AA?$AA@ 100152f8     LIBCMT:winapinls.obj
 0002:00004304       ??_C@_1M@DANKKHJ@?$AAs?$AAe?$AA?9?$AAs?$AAe?$AA?$AA@ 10015304     LIBCMT:winapinls.obj
 0002:00004310       ??_C@_1M@PNBLONPJ@?$AAs?$AAk?$AA?9?$AAs?$AAk?$AA?$AA@ 10015310     LIBCMT:winapinls.obj
 0002:0000431c       ??_C@_1M@LFMODOAL@?$AAs?$AAl?$AA?9?$AAs?$AAi?$AA?$AA@ 1001531c     LIBCMT:winapinls.obj
 0002:00004328       ??_C@_1O@DFKOMPG@?$AAs?$AAm?$AAa?$AA?9?$AAn?$AAo?$AA?$AA@ 10015328     LIBCMT:winapinls.obj
 0002:00004338       ??_C@_1O@NDKPBNNH@?$AAs?$AAm?$AAa?$AA?9?$AAs?$AAe?$AA?$AA@ 10015338     LIBCMT:winapinls.obj
 0002:00004348       ??_C@_1O@PLLKBHAB@?$AAs?$AAm?$AAj?$AA?9?$AAn?$AAo?$AA?$AA@ 10015348     LIBCMT:winapinls.obj
 0002:00004358       ??_C@_1O@CLEPOGCA@?$AAs?$AAm?$AAj?$AA?9?$AAs?$AAe?$AA?$AA@ 10015358     LIBCMT:winapinls.obj
 0002:00004368       ??_C@_1O@DLGJGKMK@?$AAs?$AAm?$AAn?$AA?9?$AAf?$AAi?$AA?$AA@ 10015368     LIBCMT:winapinls.obj
 0002:00004378       ??_C@_1O@OJDJGAJC@?$AAs?$AAm?$AAs?$AA?9?$AAf?$AAi?$AA?$AA@ 10015378     LIBCMT:winapinls.obj
 0002:00004388       ??_C@_1M@BOFOGHPB@?$AAs?$AAq?$AA?9?$AAa?$AAl?$AA?$AA@ 10015388     LIBCMT:winapinls.obj
 0002:00004394       ??_C@_1BG@LJBBIPGB@?$AAs?$AAr?$AA?9?$AAb?$AAa?$AA?9?$AAc?$AAy?$AAr?$AAl?$AA?$AA@ 10015394     LIBCMT:winapinls.obj
 0002:000043ac       ??_C@_1BG@JLBENFOE@?$AAs?$AAr?$AA?9?$AAb?$AAa?$AA?9?$AAl?$AAa?$AAt?$AAn?$AA?$AA@ 100153ac     LIBCMT:winapinls.obj
 0002:000043c4       ??_C@_1BG@KODPNHE@?$AAs?$AAr?$AA?9?$AAs?$AAp?$AA?9?$AAc?$AAy?$AAr?$AAl?$AA?$AA@ 100153c4     LIBCMT:winapinls.obj
 0002:000043dc       ??_C@_1BG@CIOGKHPB@?$AAs?$AAr?$AA?9?$AAs?$AAp?$AA?9?$AAl?$AAa?$AAt?$AAn?$AA?$AA@ 100153dc     LIBCMT:winapinls.obj
 0002:000043f4       ??_C@_1M@NGFJLMAC@?$AAs?$AAv?$AA?9?$AAf?$AAi?$AA?$AA@ 100153f4     LIBCMT:winapinls.obj
 0002:00004400       ??_C@_1M@MPJEJAJC@?$AAs?$AAv?$AA?9?$AAs?$AAe?$AA?$AA@ 10015400     LIBCMT:winapinls.obj
 0002:0000440c       ??_C@_1M@MPNDHLFK@?$AAs?$AAw?$AA?9?$AAk?$AAe?$AA?$AA@ 1001540c     LIBCMT:winapinls.obj
 0002:00004418       ??_C@_1O@KOHBJJI@?$AAs?$AAy?$AAr?$AA?9?$AAs?$AAy?$AA?$AA@ 10015418     LIBCMT:winapinls.obj
 0002:00004428       ??_C@_1M@LDCEFHA@?$AAt?$AAa?$AA?9?$AAi?$AAn?$AA?$AA@ 10015428     LIBCMT:winapinls.obj
 0002:00004434       ??_C@_1M@CNJOFAK@?$AAt?$AAe?$AA?9?$AAi?$AAn?$AA?$AA@ 10015434     LIBCMT:winapinls.obj
 0002:00004440       ??_C@_1M@GNAECACD@?$AAt?$AAh?$AA?9?$AAt?$AAh?$AA?$AA@ 10015440     LIBCMT:winapinls.obj
 0002:0000444c       ??_C@_1M@CHBIHOJO@?$AAt?$AAn?$AA?9?$AAz?$AAa?$AA?$AA@ 1001544c     LIBCMT:winapinls.obj
 0002:00004458       ??_C@_1M@GCCMIGPJ@?$AAt?$AAr?$AA?9?$AAt?$AAr?$AA?$AA@ 10015458     LIBCMT:winapinls.obj
 0002:00004464       ??_C@_1M@CELMCNBK@?$AAt?$AAt?$AA?9?$AAr?$AAu?$AA?$AA@ 10015464     LIBCMT:winapinls.obj
 0002:00004470       ??_C@_1M@KLMCELGA@?$AAu?$AAk?$AA?9?$AAu?$AAa?$AA?$AA@ 10015470     LIBCMT:winapinls.obj
 0002:0000447c       ??_C@_1M@EPAJJAJF@?$AAu?$AAr?$AA?9?$AAp?$AAk?$AA?$AA@ 1001547c     LIBCMT:winapinls.obj
 0002:00004488       ??_C@_1BG@GEGPMCDJ@?$AAu?$AAz?$AA?9?$AAu?$AAz?$AA?9?$AAc?$AAy?$AAr?$AAl?$AA?$AA@ 10015488     LIBCMT:winapinls.obj
 0002:000044a0       ??_C@_1BG@EGGKJILM@?$AAu?$AAz?$AA?9?$AAu?$AAz?$AA?9?$AAl?$AAa?$AAt?$AAn?$AA?$AA@ 100154a0     LIBCMT:winapinls.obj
 0002:000044b8       ??_C@_1M@GFOCLFF@?$AAv?$AAi?$AA?9?$AAv?$AAn?$AA?$AA@ 100154b8     LIBCMT:winapinls.obj
 0002:000044c4       ??_C@_1M@CPAMEDFI@?$AAx?$AAh?$AA?9?$AAz?$AAa?$AA?$AA@ 100154c4     LIBCMT:winapinls.obj
 0002:000044d0       ??_C@_1O@EBKIFIGN@?$AAz?$AAh?$AA?9?$AAc?$AAh?$AAs?$AA?$AA@ 100154d0     LIBCMT:winapinls.obj
 0002:000044e0       ??_C@_1O@NMHPGANE@?$AAz?$AAh?$AA?9?$AAc?$AAh?$AAt?$AA?$AA@ 100154e0     LIBCMT:winapinls.obj
 0002:000044f0       ??_C@_1M@LPINJOMC@?$AAz?$AAh?$AA?9?$AAc?$AAn?$AA?$AA@ 100154f0     LIBCMT:winapinls.obj
 0002:000044fc       ??_C@_1M@OCJEJODD@?$AAz?$AAh?$AA?9?$AAh?$AAk?$AA?$AA@ 100154fc     LIBCMT:winapinls.obj
 0002:00004508       ??_C@_1M@DNDLJINH@?$AAz?$AAh?$AA?9?$AAm?$AAo?$AA?$AA@ 10015508     LIBCMT:winapinls.obj
 0002:00004514       ??_C@_1M@MBFDNDND@?$AAz?$AAh?$AA?9?$AAs?$AAg?$AA?$AA@ 10015514     LIBCMT:winapinls.obj
 0002:00004520       ??_C@_1M@IMEPLEPE@?$AAz?$AAh?$AA?9?$AAt?$AAw?$AA?$AA@ 10015520     LIBCMT:winapinls.obj
 0002:0000452c       ??_C@_1M@BBGHNHJP@?$AAz?$AAu?$AA?9?$AAz?$AAa?$AA?$AA@ 1001552c     LIBCMT:winapinls.obj
 0002:00004540       __indefinite               10015540     LIBCMT:87disp.obj
 0002:0000454a       __piby2                    1001554a     LIBCMT:87disp.obj
 0002:00004578       __DEFAULT_CW_in_mem        10015578     LIBCMT:common.obj
 0002:0000457a       __pi_by_2_to_61            1001557a     LIBCMT:common.obj
 0002:000045b8       ___newctype                100155b8     LIBCMT:ctype.obj
 0002:000048b8       __wctype                   100158b8     LIBCMT:ctype.obj
 0002:00004ac0       ___newclmap                10015ac0     LIBCMT:ctype.obj
 0002:00004c40       ___newcumap                10015c40     LIBCMT:ctype.obj
 0002:00004dc0       ___rg_language_count       10015dc0     LIBCMT:getqloc.obj
 0002:00004dc4       ___rg_country_count        10015dc4     LIBCMT:getqloc.obj
 0002:00004f54       ??_C@_08EHJDFFNH@__based?$CI?$AA@ 10015f54     LIBCMT:undname.obj
 0002:00004f60       ??_C@_07KOLFKCDI@__cdecl?$AA@ 10015f60     LIBCMT:undname.obj
 0002:00004f68       ??_C@_08GHMPAG@__pascal?$AA@ 10015f68     LIBCMT:undname.obj
 0002:00004f74       ??_C@_09IFJBGAPI@__stdcall?$AA@ 10015f74     LIBCMT:undname.obj
 0002:00004f80       ??_C@_0L@NPHFGOKO@__thiscall?$AA@ 10015f80     LIBCMT:undname.obj
 0002:00004f8c       ??_C@_0L@JMKHOMEK@__fastcall?$AA@ 10015f8c     LIBCMT:undname.obj
 0002:00004f98       ??_C@_0N@BCKKPABJ@__vectorcall?$AA@ 10015f98     LIBCMT:undname.obj
 0002:00004fa8       ??_C@_09HIJEGCPM@__clrcall?$AA@ 10015fa8     LIBCMT:undname.obj
 0002:00004fb4       ??_C@_06GHPCKEAG@__eabi?$AA@ 10015fb4     LIBCMT:undname.obj
 0002:00004fbc       ??_C@_07JOMMBBKO@__ptr64?$AA@ 10015fbc     LIBCMT:undname.obj
 0002:00004fc4       ??_C@_0L@PILCLIHE@__restrict?$AA@ 10015fc4     LIBCMT:undname.obj
 0002:00004fd0       ??_C@_0M@GFIIJFMG@__unaligned?$AA@ 10015fd0     LIBCMT:undname.obj
 0002:00004fdc       ??_C@_09DHDLOLLB@restrict?$CI?$AA@ 10015fdc     LIBCMT:undname.obj
 0002:00004fe6       ??_C@_00CNPNBAHC@?$AA@     10015fe6     LIBCMT:undname.obj
 0002:00004fe8       ??_C@_04NIHEBCM@?5new?$AA@ 10015fe8     LIBCMT:undname.obj
 0002:00004ff0       ??_C@_07FPCDHGMM@?5delete?$AA@ 10015ff0     LIBCMT:undname.obj
 0002:00004ff8       ??_C@_01NEMOKFLO@?$DN?$AA@ 10015ff8     LIBCMT:undname.obj
 0002:00004ffc       ??_C@_02GPIOPFAK@?$DO?$DO?$AA@ 10015ffc     LIBCMT:undname.obj
 0002:00005000       ??_C@_02FODMEDOG@?$DM?$DM?$AA@ 10016000     LIBCMT:undname.obj
 0002:00005004       ??_C@_01DCLJPIOD@?$CB?$AA@ 10016004     LIBCMT:undname.obj
 0002:00005008       ??_C@_02EGOFBIJA@?$DN?$DN?$AA@ 10016008     LIBCMT:undname.obj
 0002:0000500c       ??_C@_02FDNJECIE@?$CB?$DN?$AA@ 1001600c     LIBCMT:undname.obj
 0002:00005010       ??_C@_02GPECMEKF@?$FL?$FN?$AA@ 10016010     LIBCMT:undname.obj
 0002:00005014       ??_C@_08LHJFAFGD@operator?$AA@ 10016014     LIBCMT:undname.obj
 0002:00005020       ??_C@_02HBOOOICD@?9?$DO?$AA@ 10016020     LIBCMT:undname.obj
 0002:00005024       ??_C@_01NBENCBCI@?$CK?$AA@ 10016024     LIBCMT:undname.obj
 0002:00005028       ??_C@_02ECNGHCIF@?$CL?$CL?$AA@ 10016028     LIBCMT:undname.obj
 0002:0000502c       ??_C@_02BAABKJLB@?9?9?$AA@ 1001602c     LIBCMT:undname.obj
 0002:00005030       ??_C@_01JOAMLHOP@?9?$AA@   10016030     LIBCMT:undname.obj
 0002:00005034       ??_C@_01MIFGBAGJ@?$CL?$AA@ 10016034     LIBCMT:undname.obj
 0002:00005038       ??_C@_01HNPIGOCE@?$CG?$AA@ 10016038     LIBCMT:undname.obj
 0002:0000503c       ??_C@_03MNHNFDLC@?9?$DO?$CK?$AA@ 1001603c     LIBCMT:undname.obj
 0002:00005040       ??_C@_01KMDKNFGN@?1?$AA@   10016040     LIBCMT:undname.obj
 0002:00005044       ??_C@_01FGNFDNOH@?$CF?$AA@ 10016044     LIBCMT:undname.obj
 0002:00005048       ??_C@_01MNNFJEPP@?$DM?$AA@ 10016048     LIBCMT:undname.obj
 0002:0000504c       ??_C@_02EHCHHCKH@?$DM?$DN?$AA@ 1001604c     LIBCMT:undname.obj
 0002:00005050       ??_C@_01PPODPGHN@?$DO?$AA@ 10016050     LIBCMT:undname.obj
 0002:00005054       ??_C@_02EEKDKGMJ@?$DO?$DN?$AA@ 10016054     LIBCMT:undname.obj
 0002:00005058       ??_C@_01IHBHIGKO@?0?$AA@   10016058     LIBCMT:undname.obj
 0002:0000505c       ??_C@_02HCKGKOFO@?$CI?$CJ?$AA@ 1001605c     LIBCMT:undname.obj
 0002:00005060       ??_C@_01PJKLJHI@?$HO?$AA@  10016060     LIBCMT:undname.obj
 0002:00005064       ??_C@_01JKBOJNNK@?$FO?$AA@ 10016064     LIBCMT:undname.obj
 0002:00005068       ??_C@_01DNKMNLPK@?$HM?$AA@ 10016068     LIBCMT:undname.obj
 0002:0000506c       ??_C@_02PPKAJPJL@?$CG?$CG?$AA@ 1001606c     LIBCMT:undname.obj
 0002:00005070       ??_C@_02NONPIBCD@?$HM?$HM?$AA@ 10016070     LIBCMT:undname.obj
 0002:00005074       ??_C@_02FPIMKNGF@?$CK?$DN?$AA@ 10016074     LIBCMT:undname.obj
 0002:00005078       ??_C@_02FOEOMHFC@?$CL?$DN?$AA@ 10016078     LIBCMT:undname.obj
 0002:0000507c       ??_C@_02FKMDLLOA@?9?$DN?$AA@ 1001607c     LIBCMT:undname.obj
 0002:00005080       ??_C@_02FJEHGPIO@?1?$DN?$AA@ 10016080     LIBCMT:undname.obj
 0002:00005084       ??_C@_02FENAOKFI@?$CF?$DN?$AA@ 10016084     LIBCMT:undname.obj
 0002:00005088       ??_C@_03IKFCCPFF@?$DO?$DO?$DN?$AA@ 10016088     LIBCMT:undname.obj
 0002:0000508c       ??_C@_03CDNPDDLA@?$DM?$DM?$DN?$AA@ 1001608c     LIBCMT:undname.obj
 0002:00005090       ??_C@_02FGJGFEAB@?$CG?$DN?$AA@ 10016090     LIBCMT:undname.obj
 0002:00005094       ??_C@_02DHLNPPGH@?$HM?$DN?$AA@ 10016094     LIBCMT:undname.obj
 0002:00005098       ??_C@_02MHEGNOJ@?$FO?$DN?$AA@ 10016098     LIBCMT:undname.obj
 0002:0000509c       ??_C@_09IFPLHPGF@?$GAvftable?8?$AA@ 1001609c     LIBCMT:undname.obj
 0002:000050a8       ??_C@_09BLBHBJP@?$GAvbtable?8?$AA@ 100160a8     LIBCMT:undname.obj
 0002:000050b4       ??_C@_07FEEIOKP@?$GAvcall?8?$AA@ 100160b4     LIBCMT:undname.obj
 0002:000050bc       ??_C@_08LLFFHHDJ@?$GAtypeof?8?$AA@ 100160bc     LIBCMT:undname.obj
 0002:000050c8       ??_C@_0BF@KDPPACIK@?$GAlocal?5static?5guard?8?$AA@ 100160c8     LIBCMT:undname.obj
 0002:000050e0       ??_C@_08OBABFOLI@?$GAstring?8?$AA@ 100160e0     LIBCMT:undname.obj
 0002:000050ec       ??_C@_0BD@JDLKDPAB@?$GAvbase?5destructor?8?$AA@ 100160ec     LIBCMT:undname.obj
 0002:00005100       ??_C@_0BN@DEGPLNFK@?$GAvector?5deleting?5destructor?8?$AA@ 10016100     LIBCMT:undname.obj
 0002:00005120       ??_C@_0BO@OBMKPJIG@?$GAdefault?5constructor?5closure?8?$AA@ 10016120     LIBCMT:undname.obj
 0002:00005140       ??_C@_0BN@IMDCHIKM@?$GAscalar?5deleting?5destructor?8?$AA@ 10016140     LIBCMT:undname.obj
 0002:00005160       ??_C@_0BO@PFGOCPJJ@?$GAvector?5constructor?5iterator?8?$AA@ 10016160     LIBCMT:undname.obj
 0002:00005180       ??_C@_0BN@LFPFMEDL@?$GAvector?5destructor?5iterator?8?$AA@ 10016180     LIBCMT:undname.obj
 0002:000051a0       ??_C@_0CE@IKBNEHA@?$GAvector?5vbase?5constructor?5iterat@ 100161a0     LIBCMT:undname.obj
 0002:000051c4       ??_C@_0BL@NILFHHPC@?$GAvirtual?5displacement?5map?8?$AA@ 100161c4     LIBCMT:undname.obj
 0002:000051e0       ??_C@_0CB@JONCMFFK@?$GAeh?5vector?5constructor?5iterator?8@ 100161e0     LIBCMT:undname.obj
 0002:00005204       ??_C@_0CA@GCEOPDGL@?$GAeh?5vector?5destructor?5iterator?8?$AA@ 10016204     LIBCMT:undname.obj
 0002:00005224       ??_C@_0CH@OOJPLCPH@?$GAeh?5vector?5vbase?5constructor?5ite@ 10016224     LIBCMT:undname.obj
 0002:0000524c       ??_C@_0BL@LLKPOHJI@?$GAcopy?5constructor?5closure?8?$AA@ 1001624c     LIBCMT:undname.obj
 0002:00005268       ??_C@_0BA@KBCDOMBN@?$GAudt?5returning?8?$AA@ 10016268     LIBCMT:undname.obj
 0002:00005278       ??_C@_03KLGMFNMG@?$GAEH?$AA@ 10016278     LIBCMT:undname.obj
 0002:0000527c       ??_C@_05KHLCHHI@?$GARTTI?$AA@ 1001627c     LIBCMT:undname.obj
 0002:00005284       ??_C@_0BA@KKLDJDLB@?$GAlocal?5vftable?8?$AA@ 10016284     LIBCMT:undname.obj
 0002:00005294       ??_C@_0CE@IIHCMGGL@?$GAlocal?5vftable?5constructor?5closu@ 10016294     LIBCMT:undname.obj
 0002:000052b8       ??_C@_06FHBGPFGH@?5new?$FL?$FN?$AA@ 100162b8     LIBCMT:undname.obj
 0002:000052c0       ??_C@_09LBNFPBCA@?5delete?$FL?$FN?$AA@ 100162c0     LIBCMT:undname.obj
 0002:000052cc       ??_C@_0P@HJKNJFNN@?$GAomni?5callsig?8?$AA@ 100162cc     LIBCMT:undname.obj
 0002:000052dc       ??_C@_0BL@CNOONJFP@?$GAplacement?5delete?5closure?8?$AA@ 100162dc     LIBCMT:undname.obj
 0002:000052f8       ??_C@_0BN@CKNJLHMB@?$GAplacement?5delete?$FL?$FN?5closure?8?$AA@ 100162f8     LIBCMT:undname.obj
 0002:00005318       ??_C@_0CG@CFDHKGGD@?$GAmanaged?5vector?5constructor?5iter@ 10016318     LIBCMT:undname.obj
 0002:00005340       ??_C@_0CF@IMGKMJNO@?$GAmanaged?5vector?5destructor?5itera@ 10016340     LIBCMT:undname.obj
 0002:00005368       ??_C@_0CG@HLDDJMAG@?$GAeh?5vector?5copy?5constructor?5iter@ 10016368     LIBCMT:undname.obj
 0002:00005390       ??_C@_0CM@FCBBDIGB@?$GAeh?5vector?5vbase?5copy?5constructo@ 10016390     LIBCMT:undname.obj
 0002:000053bc       ??_C@_0BL@CLIPGLGB@?$GAdynamic?5initializer?5for?5?8?$AA@ 100163bc     LIBCMT:undname.obj
 0002:000053d8       ??_C@_0CB@PDBIFEP@?$GAdynamic?5atexit?5destructor?5for?5?8@ 100163d8     LIBCMT:undname.obj
 0002:000053fc       ??_C@_0CD@CGAJBKEJ@?$GAvector?5copy?5constructor?5iterato@ 100163fc     LIBCMT:undname.obj
 0002:00005420       ??_C@_0CJ@GJELGAMM@?$GAvector?5vbase?5copy?5constructor?5i@ 10016420     LIBCMT:undname.obj
 0002:0000544c       ??_C@_0CL@FGIJHLCE@?$GAmanaged?5vector?5copy?5constructor@ 1001644c     LIBCMT:undname.obj
 0002:00005478       ??_C@_0BM@PMGGMLDN@?$GAlocal?5static?5thread?5guard?8?$AA@ 10016478     LIBCMT:undname.obj
 0002:00005494       ??_C@_0BC@DAFEJGAK@?5Type?5Descriptor?8?$AA@ 10016494     LIBCMT:undname.obj
 0002:000054a8       ??_C@_0BM@LDKODKLH@?5Base?5Class?5Descriptor?5at?5?$CI?$AA@ 100164a8     LIBCMT:undname.obj
 0002:000054c4       ??_C@_0BD@LGICGFMM@?5Base?5Class?5Array?8?$AA@ 100164c4     LIBCMT:undname.obj
 0002:000054d8       ??_C@_0BN@MECKDCOJ@?5Class?5Hierarchy?5Descriptor?8?$AA@ 100164d8     LIBCMT:undname.obj
 0002:000054f8       ??_C@_0BK@CFCOFLF@?5Complete?5Object?5Locator?8?$AA@ 100164f8     LIBCMT:undname.obj
 0002:00005514       ??_C@_06OJHGLDPL@?$CInull?$CJ?$AA@ 10016514     LIBCMT:output.obj
 0002:0000551c       ??_C@_1O@CEDCILHN@?$AA?$CI?$AAn?$AAu?$AAl?$AAl?$AA?$CJ?$AA?$AA@ 1001651c     LIBCMT:output.obj
 0002:00005530       ___lookuptable             10016530     LIBCMT:output.obj
 0002:00005590       ___lookuptable_s           10016590     LIBCMT:outputs.obj
 0002:000055ec       ??_C@_06PGGFOGJG@1?$CDSNAN?$AA@ 100165ec     LIBCMT:x10fout.obj
 0002:000055f4       ??_C@_05PHHOCPM@1?$CDIND?$AA@ 100165f4     LIBCMT:x10fout.obj
 0002:000055fc       ??_C@_05DNEBIAHO@1?$CDINF?$AA@ 100165fc     LIBCMT:x10fout.obj
 0002:00005604       ??_C@_06IMKFLFPG@1?$CDQNAN?$AA@ 10016604     LIBCMT:x10fout.obj
 0002:0000560c       ??_C@_1BA@BALFACEM@?$AAC?$AAO?$AAN?$AAO?$AAU?$AAT?$AA$?$AA?$AA@ 1001660c     LIBCMT:initcon.obj
 0002:0000561c       ??_C@_0CK@JCPCLECK@external?5memory?5allocation?5limit@ 1001661c     bufferutil.obj
 0002:00005648       ??_C@_1IC@MNIJIJHB@?$AAC?$AA?3?$AA?2?$AAU?$AAs?$AAe?$AAr?$AAs?$AA?2?$AAC?$AAa?$AAm?$AAe?$AAr?$AAo?$AAn?$AA?2?$AA?4?$AAn?$AAo?$AAd?$AAe?$AA?9?$AAg?$AAy?$AAp?$AA?2?$AA4?$AA?4?$AA2?$AA?4?$AA1@ 10016648     bufferutil.obj
 0002:000056cc       ??_C@_1DG@OKCGPKIB@?$AAp?$AAe?$AAr?$AAs?$AAi?$AAs?$AAt?$AAe?$AAn?$AAt?$AA?$CI?$AA?$CJ?$AA?4?$AAI?$AAs?$AAN?$AAe?$AAa?$AAr?$AAD?$AAe?$AAa?$AAt?$AAh?$AA?$CI?$AA?$CJ?$AA?$AA@ 100166cc     bufferutil.obj
 0002:00005704       ??_C@_1CO@EGNPJLKI@?$AAp?$AAe?$AAr?$AAs?$AAi?$AAs?$AAt?$AAe?$AAn?$AAt?$AA?$CI?$AA?$CJ?$AA?4?$AAI?$AAs?$AAE?$AAm?$AAp?$AAt?$AAy?$AA?$CI?$AA?$CJ?$AA?$AA@ 10016704     bufferutil.obj
 0002:00005738       ??_C@_1EC@NOLNIHNJ@?$AAh?$AAa?$AAn?$AAd?$AAl?$AAe?$AA?9?$AA?$DO?$AAI?$AAn?$AAt?$AAe?$AAr?$AAn?$AAa?$AAl?$AAF?$AAi?$AAe?$AAl?$AAd?$AAC?$AAo?$AAu?$AAn?$AAt?$AA?$CI?$AA?$CJ?$AA?5?$AA?$DO?$AA?5?$AA0@ 10016738     bufferutil.obj
 0002:0000577c       ??_C@_1DA@FBGAEOIO@?$AA?$CB?$AAp?$AAe?$AAr?$AAs?$AAi?$AAs?$AAt?$AAe?$AAn?$AAt?$AA?$CI?$AA?$CJ?$AA?4?$AAI?$AAs?$AAE?$AAm?$AAp?$AAt?$AAy?$AA?$CI?$AA?$CJ?$AA?$AA@ 1001677c     bufferutil.obj
 0002:000057ac       ??_C@_1CO@JCKLEFMA@?$AA?$CB?$AAp?$AAe?$AAr?$AAs?$AAi?$AAs?$AAt?$AAe?$AAn?$AAt?$AA?$CI?$AA?$CJ?$AA?4?$AAI?$AAs?$AAW?$AAe?$AAa?$AAk?$AA?$CI?$AA?$CJ?$AA?$AA@ 100167ac     bufferutil.obj
 0002:000057dc       ??_C@_1BE@GMLLOIPJ@?$AAr?$AAe?$AAf?$AAs?$AA_?$AA?5?$AA?$DO?$AA?5?$AA0?$AA?$AA@ 100167dc     bufferutil.obj
 0002:000057f0       ??_C@_1CC@GBFLAAPF@?$AAw?$AAr?$AAa?$AAp?$AA?9?$AA?$DO?$AAr?$AAe?$AAf?$AAs?$AA_?$AA?5?$AA?$DN?$AA?$DN?$AA?5?$AA0?$AA?$AA@ 100167f0     bufferutil.obj
 0002:00005814       ??_C@_1DI@ELDBKNAK@?$AAw?$AAr?$AAa?$AAp?$AA?9?$AA?$DO?$AAh?$AAa?$AAn?$AAd?$AAl?$AAe?$AA_?$AA?4?$AAI?$AAs?$AAN?$AAe?$AAa?$AAr?$AAD?$AAe?$AAa?$AAt?$AAh?$AA?$CI?$AA?$CJ?$AA?$AA@ 10016814     bufferutil.obj
 0002:00005850       ??_C@_1IM@GACIBGHJ@?$AAd?$AAa?$AAt?$AAa?$AA?4?$AAG?$AAe?$AAt?$AAV?$AAa?$AAl?$AAu?$AAe?$AA?$CI?$AA?$CJ?$AA?5?$AA?$DN?$AA?$DN?$AA?5?$AAv?$AA8?$AA?3?$AA?3?$AAL?$AAo?$AAc?$AAa?$AAl?$AA?$DM?$AAv?$AA8?$AA?3@ 10016850     bufferutil.obj
 0002:000058dc       ??_C@_06NMLLPGNI@unmask?$AA@ 100168dc     bufferutil.obj
 0002:000058e4       ??_C@_04LFLEPBN@mask?$AA@  100168e4     bufferutil.obj
 0002:000058ec       ??_C@_05DPKBJALF@merge?$AA@ 100168ec     bufferutil.obj
 0002:000058f4       ??_C@_0L@DGEFJNAP@BufferUtil?$AA@ 100168f4     bufferutil.obj
 0002:00005900       ??_C@_0BF@JIAHKDON@?4?4?2src?2bufferutil?4cc?$AA@ 10016900     bufferutil.obj
 0002:00005918       ??_C@_0L@HBBIDNNM@bufferutil?$AA@ 10016918     bufferutil.obj
 0002:00005924       ??_7ExternalSourceStream@ScriptCompiler@v8@@6B@ 10016924     bufferutil.obj
 0002:00005934       ??_7PersistentHandleVisitor@v8@@6B@ 10016934     bufferutil.obj
 0002:0000593c       ??_7ExternalOneByteStringResourceImpl@v8@@6B@ 1001693c     bufferutil.obj
 0002:0000594c       ??_7Allocator@ArrayBuffer@v8@@6B@ 1001694c     bufferutil.obj
 0002:0000595c       ?kNoColumnInfo@Message@v8@@2HB 1001695c     bufferutil.obj
 0002:0000595c       ?kNoLineNumberInfo@Message@v8@@2HB 1001695c     bufferutil.obj
 0002:0000595c       ?kNoScriptId@UnboundScript@v8@@2HB 1001695c     bufferutil.obj
 0002:0000595c       ?kNoScriptIdInfo@Message@v8@@2HB 1001695c     bufferutil.obj
 0002:00005960       ?kMaxLength@String@v8@@2HB 10016960     bufferutil.obj
 0002:00005964       ?kInternalFieldCount@SharedArrayBuffer@v8@@2HB 10016964     bufferutil.obj
 0002:00005964       ?kInternalFieldCount@ArrayBuffer@v8@@2HB 10016964     bufferutil.obj
 0002:00005964       ?kInternalFieldCount@ArrayBufferView@v8@@2HB 10016964     bufferutil.obj
 0002:00005968       ??_7ObjectWrap@node@@6B@   10016968     bufferutil.obj
 0002:00005968       ??_7BufferUtil@@6B@        10016968     bufferutil.obj
 0002:00005974       ??_7ExternalStringResourceBase@String@v8@@6B@ 10016974     bufferutil.obj
 0002:0000597c       ??_7Extension@v8@@6B@      1001697c     bufferutil.obj
 0002:00005984       ??_7ExternalStringResource@String@v8@@6B@ 10016984     bufferutil.obj
 0002:00005984       ??_7ExternalOneByteStringResource@String@v8@@6B@ 10016984     bufferutil.obj
 0002:00005994       ??_7ExternalResourceVisitor@v8@@6B@ 10016994     bufferutil.obj
 0002:0000599c       ??_C@_08HCOMDCCD@iojs?4exe?$AA@ 1001699c     win_delay_load_hook.obj
 0002:000059a8       ??_C@_08JDDNMFDB@node?4exe?$AA@ 100169a8     win_delay_load_hook.obj
 0002:000059b8       __load_config_used         100169b8     LIBCMT:loadcfg.obj
 0002:00005aac       ??_R1A@?0A@EA@exception@std@@8 10016aac     libcpmt:xthrow.obj
 0002:00005ac8       ??_R3exception@std@@8      10016ac8     libcpmt:xthrow.obj
 0002:00005ad8       ??_R2exception@std@@8      10016ad8     libcpmt:xthrow.obj
 0002:00005ae0       ??_R4bad_alloc@std@@6B@    10016ae0     libcpmt:xthrow.obj
 0002:00005af4       ??_R3bad_alloc@std@@8      10016af4     libcpmt:xthrow.obj
 0002:00005b04       ??_R2bad_alloc@std@@8      10016b04     libcpmt:xthrow.obj
 0002:00005b10       ??_R1A@?0A@EA@bad_alloc@std@@8 10016b10     libcpmt:xthrow.obj
 0002:00005b2c       ??_R4type_info@@6B@        10016b2c     LIBCMT:typinfo.obj
 0002:00005b40       ??_R3type_info@@8          10016b40     LIBCMT:typinfo.obj
 0002:00005b50       ??_R2type_info@@8          10016b50     LIBCMT:typinfo.obj
 0002:00005b58       ??_R1A@?0A@EA@type_info@@8 10016b58     LIBCMT:typinfo.obj
 0002:00005b74       ??_R4exception@std@@6B@    10016b74     LIBCMT:stdexcpt.obj
 0002:00005b90       ___safe_se_handler_table   10016b90     <linker-defined>
 0002:00005b9c       ___rtc_iaa                 10016b9c     LIBCMT:initsect.obj
 0002:00005ba0       ___rtc_izz                 10016ba0     LIBCMT:initsect.obj
 0002:00005ba4       ___rtc_taa                 10016ba4     LIBCMT:initsect.obj
 0002:00005ba8       ___rtc_tzz                 10016ba8     LIBCMT:initsect.obj
 0002:00005bb0       __TI2?AVbad_alloc@std@@    10016bb0     libcpmt:xthrow.obj
 0002:00005bc0       __CTA2?AVbad_alloc@std@@   10016bc0     libcpmt:xthrow.obj
 0002:00005bcc       __CT??_R0?AVbad_alloc@std@@@8??0bad_alloc@std@@QAE@ABV01@@Z12 10016bcc     libcpmt:xthrow.obj
 0002:00005be8       __CT??_R0?AVexception@std@@@8??0exception@std@@QAE@ABV01@@Z12 10016be8     libcpmt:xthrow.obj
 0002:00005fbc       __DELAY_IMPORT_DESCRIPTOR_node_exe 10016fbc     node:node.exe
 0002:00005fdc       __NULL_DELAY_IMPORT_DESCRIPTOR 10016fdc     node:node.exe
 0002:0000611c       \177node_NULL_THUNK_DATA_DLN 1001711c     node:node.exe
 0002:000074b8       \177node_NULL_THUNK_DATA_DLB 100184b8     node:node.exe
 0002:0000af68       __IMPORT_DESCRIPTOR_KERNEL32 1001bf68     kernel32:KERNEL32.dll
 0002:0000af7c       __NULL_IMPORT_DESCRIPTOR   1001bf7c     kernel32:KERNEL32.dll
 0003:00000060       __fltused                  1001d060     LIBCMT:fpinit.obj
 0003:00000064       __ldused                   1001d064     LIBCMT:fpinit.obj
 0003:00000068       ___security_cookie         1001d068     LIBCMT:gs_cookie.obj
 0003:0000006c       ___security_cookie_complement 1001d06c     LIBCMT:gs_cookie.obj
 0003:00000070       ___isa_enabled             1001d070     LIBCMT:cpu_disp.obj
 0003:00000074       ___abort_behavior          1001d074     LIBCMT:abort.obj
 0003:00000078       __iob                      1001d078     LIBCMT:_file.obj
 0003:00000308       __d_inf                    1001d308     LIBCMT:util.obj
 0003:00000310       __d_ind                    1001d310     LIBCMT:util.obj
 0003:00000318       __d_max                    1001d318     LIBCMT:util.obj
 0003:00000320       __d_min                    1001d320     LIBCMT:util.obj
 0003:00000328       __d_mzero                  1001d328     LIBCMT:util.obj
 0003:00000438       __mbctype                  1001d438     LIBCMT:mbctype.obj
 0003:00000540       __mbcasemap                1001d540     LIBCMT:mbctype.obj
 0003:00000640       ___initialmbcinfo          1001d640     LIBCMT:mbctype.obj
 0003:00000864       ___ptmbcinfo               1001d864     LIBCMT:mbctype.obj
 0003:00000958       ___flsindex                1001d958     LIBCMT:tidtable.obj
 0003:00000ad0       ___mb_cur_max              1001dad0     LIBCMT:nlsdata.obj
 0003:00000ad4       ___wclocalestr             1001dad4     LIBCMT:nlsdata.obj
 0003:00000ad8       ___lc_time_c               1001dad8     LIBCMT:nlsdata.obj
 0003:00000c3c       ___ptlocinfo               1001dc3c     LIBCMT:nlsdata.obj
 0003:00000c40       ___initiallocinfo          1001dc40     LIBCMT:nlsdata.obj
 0003:00000cf8       ___globallocalestatus      1001dcf8     LIBCMT:glstatus.obj
 0003:00000d00       ___badioinfo               1001dd00     LIBCMT:ioinit.obj
 0003:00000d50       __cfltcvt_tab              1001dd50     LIBCMT:cmiscdat.obj
 0003:00000ea0       __matherr_flag             1001dea0     LIBCMT:matherr.obj
 0003:00000ea8       ___lconv                   1001dea8     LIBCMT:lconv.obj
 0003:00000eac       ___lconv_static_decimal    1001deac     LIBCMT:lconv.obj
 0003:00000eb0       ___lconv_c                 1001deb0     LIBCMT:lconv.obj
 0003:00000f00       ___lconv_static_W_decimal  1001df00     LIBCMT:lconv.obj
 0003:00000f04       __pctype                   1001df04     LIBCMT:ctype.obj
 0003:00000f08       __pwctype                  1001df08     LIBCMT:ctype.obj
 0003:00000f10       __NLG_Destination          1001df10     LIBCMT:exsup.obj
 0003:00000f20       ___nullstring              1001df20     LIBCMT:output.obj
 0003:00000f24       ___wnullstring             1001df24     LIBCMT:output.obj
 0003:00000f60       __confh                    1001df60     LIBCMT:initcon.obj
 0003:00000f68       __pow10pos                 1001df68     LIBCMT:constpow.obj
 0003:000010c8       __pow10neg                 1001e0c8     LIBCMT:constpow.obj
 0003:00001230       __HUGE                     1001e230     LIBCMT:huge.obj
 0003:0000125c       ___pfnDliNotifyHook2       1001e25c     win_delay_load_hook.obj
 0003:00001260       ??_R0?AVbad_alloc@std@@@8  1001e260     libcpmt:xthrow.obj
 0003:0000127c       ??_R0?AVexception@std@@@8  1001e27c     libcpmt:xthrow.obj
 0003:00001298       ??_R0?AVtype_info@@@8      1001e298     LIBCMT:typinfo.obj
 0003:000012b0       __imp_?Length@Buffer@node@@YAIV?$Local@VObject@v8@@@v8@@@Z 1001e2b0     node:node.exe
 0003:000012b4       __imp_?Data@Buffer@node@@YAPADV?$Local@VObject@v8@@@v8@@@Z 1001e2b4     node:node.exe
 0003:000012b8       __imp__node_module_register 1001e2b8     node:node.exe
 0003:000012bc       __imp_?Initialize@Locker@v8@@AAEXPAVIsolate@2@@Z 1001e2bc     node:node.exe
 0003:000012c0       __imp_?GetId@UnboundScript@v8@@QAEHXZ 1001e2c0     node:node.exe
 0003:000012c4       __imp_?GetUnboundScript@Script@v8@@QAE?AV?$Local@VUnboundScript@v8@@@2@XZ 1001e2c4     node:node.exe
 0003:000012c8       __imp_?ToLocalEmpty@V8@v8@@CAXXZ 1001e2c8     node:node.exe
 0003:000012cc       __imp_?ClearWeak@V8@v8@@CAPAXPAPAVObject@internal@2@@Z 1001e2cc     node:node.exe
 0003:000012d0       __imp_?MakeWeak@V8@v8@@CAXPAPAVObject@internal@2@PAXP6AXABV?$WeakCallbackData@VValue@v8@@X@2@@Z@Z 1001e2d0     node:node.exe
 0003:000012d4       __imp_?DisposeGlobal@V8@v8@@CAXPAPAVObject@internal@2@@Z 1001e2d4     node:node.exe
 0003:000012d8       __imp_?GlobalizeReference@V8@v8@@CAPAPAVObject@internal@2@PAVIsolate@42@PAPAV342@@Z 1001e2d8     node:node.exe
 0003:000012dc       __imp_?Escape@EscapableHandleScope@v8@@AAEPAPAVObject@internal@2@PAPAV342@@Z 1001e2dc     node:node.exe
 0003:000012e0       __imp_??0EscapableHandleScope@v8@@QAE@PAVIsolate@1@@Z 1001e2e0     node:node.exe
 0003:000012e4       __imp_?Int32Value@Value@v8@@QBEHXZ 1001e2e4     node:node.exe
 0003:000012e8       __imp_?ToInt32@Value@v8@@QBE?AV?$MaybeLocal@VInt32@v8@@@2@V?$Local@VContext@v8@@@2@@Z 1001e2e8     node:node.exe
 0003:000012ec       __imp_?ToUint32@Value@v8@@QBE?AV?$MaybeLocal@VUint32@v8@@@2@V?$Local@VContext@v8@@@2@@Z 1001e2ec     node:node.exe
 0003:000012f0       __imp_?ToInteger@Value@v8@@QBE?AV?$MaybeLocal@VInteger@v8@@@2@V?$Local@VContext@v8@@@2@@Z 1001e2f0     node:node.exe
 0003:000012f4       __imp_?ToObject@Value@v8@@QBE?AV?$MaybeLocal@VObject@v8@@@2@V?$Local@VContext@v8@@@2@@Z 1001e2f4     node:node.exe
 0003:000012f8       __imp_?ToDetailString@Value@v8@@QBE?AV?$MaybeLocal@VString@v8@@@2@V?$Local@VContext@v8@@@2@@Z 1001e2f8     node:node.exe
 0003:000012fc       __imp_?ToString@Value@v8@@QBE?AV?$MaybeLocal@VString@v8@@@2@V?$Local@VContext@v8@@@2@@Z 1001e2fc     node:node.exe
 0003:00001300       __imp_?ToNumber@Value@v8@@QBE?AV?$MaybeLocal@VNumber@v8@@@2@V?$Local@VContext@v8@@@2@@Z 1001e300     node:node.exe
 0003:00001304       __imp_?ToBoolean@Value@v8@@QBE?AV?$MaybeLocal@VBoolean@v8@@@2@V?$Local@VContext@v8@@@2@@Z 1001e304     node:node.exe
 0003:00001308       __imp_?SetClassName@FunctionTemplate@v8@@QAEXV?$Local@VString@v8@@@2@@Z 1001e308     node:node.exe
 0003:0000130c       __imp_?InstanceTemplate@FunctionTemplate@v8@@QAE?AV?$Local@VObjectTemplate@v8@@@2@XZ 1001e30c     node:node.exe
 0003:00001310       __imp_?GetFunction@FunctionTemplate@v8@@QAE?AV?$Local@VFunction@v8@@@2@XZ 1001e310     node:node.exe
 0003:00001314       __imp_?New@FunctionTemplate@v8@@SA?AV?$Local@VFunctionTemplate@v8@@@2@PAVIsolate@2@P6AXABV?$FunctionCallbackInfo@VValue@v8@@@2@@ZV?$Local@VValue@v8@@@2@V?$Local@VSignature@v8@@@2@H@Z 1001e314     node:node.exe
 0003:00001318       __imp_?NewFromUtf8@String@v8@@SA?AV?$MaybeLocal@VString@v8@@@2@PAVIsolate@2@PBDW4NewStringType@2@H@Z 1001e318     node:node.exe
 0003:0000131c       __imp_?Length@Array@v8@@QBEIXZ 1001e31c     node:node.exe
 0003:00001320       __imp_?CreateHandle@HandleScope@v8@@KAPAPAVObject@internal@2@PAVIsolate@42@PAV342@@Z 1001e320     node:node.exe
 0003:00001324       __imp_?CreateHandle@HandleScope@v8@@CAPAPAVObject@internal@2@PAVHeapObject@42@PAV342@@Z 1001e324     node:node.exe
 0003:00001328       __imp_??1HandleScope@v8@@QAE@XZ 1001e328     node:node.exe
 0003:0000132c       __imp_??0HandleScope@v8@@QAE@PAVIsolate@1@@Z 1001e32c     node:node.exe
 0003:00001330       __imp_?SlowGetAlignedPointerFromInternalField@Object@v8@@AAEPAXH@Z 1001e330     node:node.exe
 0003:00001334       __imp_?SlowGetInternalField@Object@v8@@AAE?AV?$Local@VValue@v8@@@2@H@Z 1001e334     node:node.exe
 0003:00001338       __imp_?SetAlignedPointerInInternalField@Object@v8@@QAEXHPAX@Z 1001e338     node:node.exe
 0003:0000133c       __imp_?SetInternalField@Object@v8@@QAEXHV?$Local@VValue@v8@@@2@@Z 1001e33c     node:node.exe
 0003:00001340       __imp_?InternalFieldCount@Object@v8@@QAEHXZ 1001e340     node:node.exe
 0003:00001344       __imp_?Get@Object@v8@@QAE?AV?$Local@VValue@v8@@@2@I@Z 1001e344     node:node.exe
 0003:00001348       __imp_?Set@Object@v8@@QAE?AV?$Maybe@_N@2@V?$Local@VContext@v8@@@2@V?$Local@VValue@v8@@@2@1@Z 1001e348     node:node.exe
 0003:0000134c       __imp_?Initialize@Unlocker@v8@@AAEXPAVIsolate@2@@Z 1001e34c     node:node.exe
 0003:00001350       __imp_?Set@Template@v8@@QAEXV?$Local@VName@v8@@@2@V?$Local@VData@v8@@@2@W4PropertyAttribute@2@@Z 1001e350     node:node.exe
 0003:00001354       __imp_?SetInternalFieldCount@ObjectTemplate@v8@@QAEXH@Z 1001e354     node:node.exe
 0003:00001358       __imp_?SetHandler@ObjectTemplate@v8@@QAEXABUIndexedPropertyHandlerConfiguration@2@@Z 1001e358     node:node.exe
 0003:0000135c       __imp_?NewInstance@ObjectTemplate@v8@@QAE?AV?$MaybeLocal@VObject@v8@@@2@V?$Local@VContext@v8@@@2@@Z 1001e35c     node:node.exe
 0003:00001360       __imp_?New@ObjectTemplate@v8@@SA?AV?$Local@VObjectTemplate@v8@@@2@PAVIsolate@2@V?$Local@VFunctionTemplate@v8@@@2@@Z 1001e360     node:node.exe
 0003:00001364       __imp_?NewInstance@Function@v8@@QBE?AV?$MaybeLocal@VObject@v8@@@2@V?$Local@VContext@v8@@@2@HQAV?$Local@VValue@v8@@@2@@Z 1001e364     node:node.exe
 0003:00001368       __imp_?CollectAllGarbage@Isolate@v8@@AAEXPBD@Z 1001e368     node:node.exe
 0003:0000136c       __imp_?VisitHandlesForPartialDependence@Isolate@v8@@QAEXPAVPersistentHandleVisitor@2@@Z 1001e36c     node:node.exe
 0003:00001370       __imp_?VisitHandlesWithClassIds@Isolate@v8@@QAEXPAVPersistentHandleVisitor@2@@Z 1001e370     node:node.exe
 0003:00001374       __imp_?VisitExternalResources@Isolate@v8@@QAEXPAVExternalResourceVisitor@2@@Z 1001e374     node:node.exe
 0003:00001378       __imp_?RemoveMemoryAllocationCallback@Isolate@v8@@QAEXP6AXW4ObjectSpace@2@W4AllocationAction@2@H@Z@Z 1001e378     node:node.exe
 0003:0000137c       __imp_?AddMemoryAllocationCallback@Isolate@v8@@QAEXP6AXW4ObjectSpace@2@W4AllocationAction@2@H@Z01@Z 1001e37c     node:node.exe
 0003:00001380       __imp_?SetCaptureStackTraceForUncaughtExceptions@Isolate@v8@@QAEX_NHW4StackTraceOptions@StackTrace@2@@Z 1001e380     node:node.exe
 0003:00001384       __imp_?SetFailedAccessCheckCallbackFunction@Isolate@v8@@QAEXP6AXV?$Local@VObject@v8@@@2@W4AccessType@2@V?$Local@VValue@v8@@@2@@Z@Z 1001e384     node:node.exe
 0003:00001388       __imp_?RemoveMessageListeners@Isolate@v8@@QAEXP6AXV?$Local@VMessage@v8@@@2@V?$Local@VValue@v8@@@2@@Z@Z 1001e388     node:node.exe
 0003:0000138c       __imp_?AddMessageListener@Isolate@v8@@QAE_NP6AXV?$Local@VMessage@v8@@@2@V?$Local@VValue@v8@@@2@@Z1@Z 1001e38c     node:node.exe
 0003:00001390       __imp_?IsDead@Isolate@v8@@QAE_NXZ 1001e390     node:node.exe
 0003:00001394       __imp_?SetAllowCodeGenerationFromStringsCallback@Isolate@v8@@QAEXP6A_NV?$Local@VContext@v8@@@2@@Z@Z 1001e394     node:node.exe
 0003:00001398       __imp_?SetFatalErrorHandler@Isolate@v8@@QAEXP6AXPBD0@Z@Z 1001e398     node:node.exe
 0003:0000139c       __imp_?CancelTerminateExecution@Isolate@v8@@QAEXXZ 1001e39c     node:node.exe
 0003:000013a0       __imp_?IsExecutionTerminating@Isolate@v8@@QAE_NXZ 1001e3a0     node:node.exe
 0003:000013a4       __imp_?TerminateExecution@Isolate@v8@@QAEXXZ 1001e3a4     node:node.exe
 0003:000013a8       __imp_?RemoveGCEpilogueCallback@Isolate@v8@@QAEXP6AXPAV12@W4GCType@2@W4GCCallbackFlags@2@@Z@Z 1001e3a8     node:node.exe
 0003:000013ac       __imp_?RemoveGCPrologueCallback@Isolate@v8@@QAEXP6AXPAV12@W4GCType@2@W4GCCallbackFlags@2@@Z@Z 1001e3ac     node:node.exe
 0003:000013b0       __imp_?GetCurrentContext@Isolate@v8@@QAE?AV?$Local@VContext@v8@@@2@XZ 1001e3b0     node:node.exe
 0003:000013b4       __imp_?Exit@Isolate@v8@@QAEXXZ 1001e3b4     node:node.exe
 0003:000013b8       __imp_?Enter@Isolate@v8@@QAEXXZ 1001e3b8     node:node.exe
 0003:000013bc       __imp_?GetCurrent@Isolate@v8@@SAPAV12@XZ 1001e3bc     node:node.exe
 0003:000013c0       __imp_?ResetToBookmark@ExternalSourceStream@ScriptCompiler@v8@@UAEXXZ 1001e3c0     node:node.exe
 0003:000013c4       __imp_?SetBookmark@ExternalSourceStream@ScriptCompiler@v8@@UAE_NXZ 1001e3c4     node:node.exe
 0003:000013c8       __imp_?Value@External@v8@@QBEPAXXZ 1001e3c8     node:node.exe
 0003:000013cc       __imp_?New@External@v8@@SA?AV?$Local@VExternal@v8@@@2@PAVIsolate@2@PAX@Z 1001e3cc     node:node.exe
 0003:000013d0       \177node_NULL_THUNK_DATA_DLA 1001e3d0     node:node.exe
 0003:000013e0       __hmod__node_exe           1001e3e0     node:node.exe
 0003:000013f0       __aenvptr                  1001e3f0     LIBCMT:dllcrt0.obj
 0003:000013f4       __wenvptr                  1001e3f4     LIBCMT:dllcrt0.obj
 0003:000013f8       ___fastflag                1001e3f8     LIBCMT:fpinit.obj
 0003:00001720       ___isa_available           1001e720     LIBCMT:cpu_disp.obj
 0003:00001724       ___favor                   1001e724     LIBCMT:cpu_disp.obj
 0003:00001728       ___pInvalidArgHandler      1001e728     LIBCMT:invarg.obj
 0003:0000172c       __C_Exit_Done              1001e72c     LIBCMT:crt0dat.obj
 0003:00001730       ___argc                    1001e730     LIBCMT:crt0dat.obj
 0003:00001734       ___argv                    1001e734     LIBCMT:crt0dat.obj
 0003:00001738       ___wargv                   1001e738     LIBCMT:crt0dat.obj
 0003:0000173c       __environ                  1001e73c     LIBCMT:crt0dat.obj
 0003:00001740       __wenviron                 1001e740     LIBCMT:crt0dat.obj
 0003:00001744       __pgmptr                   1001e744     LIBCMT:crt0dat.obj
 0003:00001748       __wpgmptr                  1001e748     LIBCMT:crt0dat.obj
 0003:0000174c       __umaskval                 1001e74c     LIBCMT:crt0dat.obj
 0003:00001750       __exitflag                 1001e750     LIBCMT:crt0dat.obj
 0003:00001754       __C_Termination_Done       1001e754     LIBCMT:crt0dat.obj
 0003:00001758       ___winitenv                1001e758     LIBCMT:crt0dat.obj
 0003:0000175c       ___initenv                 1001e75c     LIBCMT:crt0dat.obj
 0003:00001760       ___error_mode              1001e760     LIBCMT:errmode.obj
 0003:00001764       __cflush                   1001e764     LIBCMT:_file.obj
 0003:00001790       ___app_type                1001e790     LIBCMT:crt0msg.obj
 0003:00001dc0       __maxwait                  1001edc0     LIBCMT:crtheap.obj
 0003:00001dc4       ___pPurecall               1001edc4     LIBCMT:inithelp.obj
 0003:00001dc8       ?_pnhHeap@@3P6AHI@ZA       1001edc8     LIBCMT:handler.obj
 0003:00001dcc       ___mbcodepage              1001edcc     LIBCMT:mbctype.obj
 0003:00001dd0       ___ismbcodepage            1001edd0     LIBCMT:mbctype.obj
 0003:00001dd4       ___mbulinfo                1001edd4     LIBCMT:mbctype.obj
 0003:00001de0       ___mblocalename            1001ede0     LIBCMT:mbctype.obj
 0003:00001de8       ___locale_changed          1001ede8     LIBCMT:wsetloca.obj
 0003:00001dec       __crtheap                  1001edec     LIBCMT:heapinit.obj
 0003:00001df0       ___pioinfo                 1001edf0     LIBCMT:ioinit.obj
 0003:00001ff8       ?__pInconsistency@@3P6AXXZA 1001eff8     LIBCMT:hooks.obj
 0003:00001ffc       ?g_OutOfMemoryExceptionCallback@@3P6GPAXXZA 1001effc     LIBCMT:frame.obj
 0003:0000215c       __stdbuf                   1001f15c     LIBCMT:_sftbuf.obj
 0003:00002168       __newmode                  1001f168     LIBCMT:_newmode.obj
 0003:0000216c       ___lconv_static_null       1001f16c     LIBCMT:lconv.obj
 0003:00002170       ___lconv_static_W_null     1001f170     LIBCMT:lconv.obj
 0003:00002174       ?pArgList@UnDecorator@@0PAVReplicator@@A 1001f174     LIBCMT:undname.obj
 0003:00002178       ?pZNameList@UnDecorator@@0PAVReplicator@@A 1001f178     LIBCMT:undname.obj
 0003:0000217c       ?pTemplateArgList@UnDecorator@@0PAVReplicator@@A 1001f17c     LIBCMT:undname.obj
 0003:00002180       ?gName@UnDecorator@@0PBDB  1001f180     LIBCMT:undname.obj
 0003:00002184       ?name@UnDecorator@@0PBDB   1001f184     LIBCMT:undname.obj
 0003:00002188       ?outputString@UnDecorator@@0PADA 1001f188     LIBCMT:undname.obj
 0003:0000218c       ?maxStringLength@UnDecorator@@0HA 1001f18c     LIBCMT:undname.obj
 0003:00002190       ?disableFlags@UnDecorator@@0KA 1001f190     LIBCMT:undname.obj
 0003:00002194       ?fExplicitTemplateParams@UnDecorator@@0_NA 1001f194     LIBCMT:undname.obj
 0003:00002195       ?fGetTemplateArgumentList@UnDecorator@@0_NA 1001f195     LIBCMT:undname.obj
 0003:00002198       ?m_pGetParameter@UnDecorator@@0P6APADJ@ZA 1001f198     LIBCMT:undname.obj
 0003:000021b0       __outputformat             1001f1b0     LIBCMT:outputformat.obj
 0003:000021b8       ___pfnDliFailureHook2      1001f1b8     DelayImp:delayhk1.obj
 0003:000021bc       ?id@?$num_put@_WV?$back_insert_iterator@V?$basic_string@_WU?$char_traits@_W@std@@V?$allocator@_W@2@@std@@@std@@@std@@2V0locale@2@A 1001f1bc     bufferutil.obj
 0003:000021c0       ?_System_object@?$_Error_objects@H@std@@2V_System_error_category@2@A 1001f1c0     bufferutil.obj
 0003:000021c4       ?id@?$numpunct@_W@std@@2V0locale@2@A 1001f1c4     bufferutil.obj
 0003:000021c8       ?id@?$num_put@DV?$back_insert_iterator@V?$basic_string@DU?$char_traits@D@std@@V?$allocator@D@2@@std@@@std@@@std@@2V0locale@2@A 1001f1c8     bufferutil.obj
 0003:000021cc       ?_Generic_object@?$_Error_objects@H@std@@2V_Generic_error_category@2@A 1001f1cc     bufferutil.obj
 0003:000021d0       ?id@?$numpunct@D@std@@2V0locale@2@A 1001f1d0     bufferutil.obj
 0003:000021d8       ?_Iostream_object@?$_Error_objects@H@std@@2V_Iostream_error_category@2@A 1001f1d8     bufferutil.obj
 0003:000021dc       __debugger_hook_dummy      1001f1dc     <common>
 0003:000021e0       _encodedKERNEL32Functions  1001f1e0     <common>
 0003:00002264       __nhandle                  1001f264     <common>
 0003:00002280       __bufin                    1001f280     <common>
 0003:00003280       ___piob                    10020280     <common>
 0003:00003284       __nstream                  10020284     <common>
 0003:00003288       ___dyn_tls_init_callback   10020288     <common>
 0003:0000328c       ___onexitend               1002028c     <common>
 0003:00003290       ___onexitbegin             10020290     <common>
 0003:00003294       ___mbctype_initialized     10020294     <common>
 0003:00003298       ___env_initialized         10020298     <common>
 0003:0000329c       __acmdln                   1002029c     <common>

 entry point at        0001:000030af

 Static symbols

 0000:fffdc000       .debug$S                   10000000     kernel32:KERNEL32.dll
 0000:fffdc000       .debug$S                   10000000     kernel32:KERNEL32.dll
 0000:fffdc000       .debug$S                   10000000     kernel32:KERNEL32.dll
 0000:fffdc000       .debug$S                   10000000     kernel32:KERNEL32.dll
 0000:fffdc000       .debug$S                   10000000     kernel32:KERNEL32.dll
 0000:fffdc000       .debug$S                   10000000     kernel32:KERNEL32.dll
 0000:fffdc000       .debug$S                   10000000     kernel32:KERNEL32.dll
 0000:fffdc000       .debug$S                   10000000     kernel32:KERNEL32.dll
 0000:fffdc000       .debug$S                   10000000     kernel32:KERNEL32.dll
 0000:fffdc000       .debug$S                   10000000     kernel32:KERNEL32.dll
 0000:fffdc000       .debug$S                   10000000     kernel32:KERNEL32.dll
 0000:fffdc000       .debug$S                   10000000     kernel32:KERNEL32.dll
 0000:fffdc000       .debug$S                   10000000     kernel32:KERNEL32.dll
 0000:fffdc000       .debug$S                   10000000     kernel32:KERNEL32.dll
 0000:fffdc000       .debug$S                   10000000     kernel32:KERNEL32.dll
 0000:fffdc000       .debug$S                   10000000     kernel32:KERNEL32.dll
 0000:fffdc000       .debug$S                   10000000     kernel32:KERNEL32.dll
 0000:fffdc000       .debug$S                   10000000     kernel32:KERNEL32.dll
 0000:fffdc000       .debug$S                   10000000     kernel32:KERNEL32.dll
 0000:fffdc000       .debug$S                   10000000     kernel32:KERNEL32.dll
 0000:fffdc000       .debug$S                   10000000     kernel32:KERNEL32.dll
 0000:fffdc000       .debug$S                   10000000     kernel32:KERNEL32.dll
 0000:fffdc000       .debug$S                   10000000     kernel32:KERNEL32.dll
 0000:fffdc000       .debug$S                   10000000     kernel32:KERNEL32.dll
 0000:fffdc000       .debug$S                   10000000     kernel32:KERNEL32.dll
 0000:fffdc000       .debug$S                   10000000     kernel32:KERNEL32.dll
 0000:fffdc000       .debug$S                   10000000     kernel32:KERNEL32.dll
 0000:fffdc000       .debug$S                   10000000     kernel32:KERNEL32.dll
 0000:fffdc000       .debug$S                   10000000     kernel32:KERNEL32.dll
 0000:fffdc000       .debug$S                   10000000     kernel32:KERNEL32.dll
 0000:fffdc000       .debug$S                   10000000     kernel32:KERNEL32.dll
 0000:fffdc000       .debug$S                   10000000     kernel32:KERNEL32.dll
 0000:fffdc000       .debug$S                   10000000     kernel32:KERNEL32.dll
 0000:fffdc000       .debug$S                   10000000     kernel32:KERNEL32.dll
 0000:fffdc000       .debug$S                   10000000     kernel32:KERNEL32.dll
 0000:fffdc000       .debug$S                   10000000     kernel32:KERNEL32.dll
 0000:fffdc000       .debug$S                   10000000     kernel32:KERNEL32.dll
 0000:fffdc000       .debug$S                   10000000     kernel32:KERNEL32.dll
 0000:fffdc000       .debug$S                   10000000     kernel32:KERNEL32.dll
 0000:fffdc000       .debug$S                   10000000     kernel32:KERNEL32.dll
 0000:fffdc000       .debug$S                   10000000     kernel32:KERNEL32.dll
 0000:fffdc000       .debug$S                   10000000     kernel32:KERNEL32.dll
 0000:fffdc000       .debug$S                   10000000     kernel32:KERNEL32.dll
 0000:fffdc000       .debug$S                   10000000     kernel32:KERNEL32.dll
 0000:fffdc000       .debug$S                   10000000     kernel32:KERNEL32.dll
 0000:fffdc000       .debug$S                   10000000     kernel32:KERNEL32.dll
 0000:fffdc000       .debug$S                   10000000     kernel32:KERNEL32.dll
 0000:fffdc000       .debug$S                   10000000     kernel32:KERNEL32.dll
 0000:fffdc000       .debug$S                   10000000     kernel32:KERNEL32.dll
 0000:fffdc000       .debug$S                   10000000     kernel32:KERNEL32.dll
 0000:fffdc000       .debug$S                   10000000     kernel32:KERNEL32.dll
 0000:fffdc000       .debug$S                   10000000     kernel32:KERNEL32.dll
 0000:fffdc000       .debug$S                   10000000     kernel32:KERNEL32.dll
 0000:fffdc000       .debug$S                   10000000     kernel32:KERNEL32.dll
 0000:fffdc000       .debug$S                   10000000     kernel32:KERNEL32.dll
 0000:fffdc000       .debug$S                   10000000     kernel32:KERNEL32.dll
 0000:fffdc000       .debug$S                   10000000     kernel32:KERNEL32.dll
 0000:fffdc000       .debug$S                   10000000     kernel32:KERNEL32.dll
 0000:fffdc000       .debug$S                   10000000     kernel32:KERNEL32.dll
 0000:fffdc000       .debug$S                   10000000     kernel32:KERNEL32.dll
 0000:fffdc000       .debug$S                   10000000     kernel32:KERNEL32.dll
 0000:fffdc000       .debug$S                   10000000     kernel32:KERNEL32.dll
 0000:fffdc000       .debug$S                   10000000     kernel32:KERNEL32.dll
 0000:fffdc000       .debug$S                   10000000     kernel32:KERNEL32.dll
 0000:fffdc000       .debug$S                   10000000     kernel32:KERNEL32.dll
 0000:fffdc000       .debug$S                   10000000     kernel32:KERNEL32.dll
 0000:fffdc000       .debug$S                   10000000     node:node.exe
 0000:fffdc000       .debug$S                   10000000     node:node.exe
 0000:fffdc000       .debug$S                   10000000     node:node.exe
 0000:fffdc000       .debug$S                   10000000     node:node.exe
 0000:fffdc000       .debug$S                   10000000     node:node.exe
 0000:fffdc000       .debug$S                   10000000     node:node.exe
 0000:fffdc000       .debug$S                   10000000     node:node.exe
 0000:fffdc000       .debug$S                   10000000     node:node.exe
 0000:fffdc000       .debug$S                   10000000     node:node.exe
 0000:fffdc000       .debug$S                   10000000     node:node.exe
 0000:fffdc000       .debug$S                   10000000     node:node.exe
 0000:fffdc000       .debug$S                   10000000     node:node.exe
 0000:fffdc000       .debug$S                   10000000     node:node.exe
 0000:fffdc000       .debug$S                   10000000     node:node.exe
 0000:fffdc000       .debug$S                   10000000     node:node.exe
 0000:fffdc000       .debug$S                   10000000     node:node.exe
 0000:fffdc000       .debug$S                   10000000     node:node.exe
 0000:fffdc000       .debug$S                   10000000     node:node.exe
 0000:fffdc000       .debug$S                   10000000     node:node.exe
 0000:fffdc000       .debug$S                   10000000     node:node.exe
 0000:fffdc000       .debug$S                   10000000     node:node.exe
 0000:fffdc000       .debug$S                   10000000     node:node.exe
 0000:fffdc000       .debug$S                   10000000     node:node.exe
 0000:fffdc000       .debug$S                   10000000     node:node.exe
 0000:fffdc000       .debug$S                   10000000     node:node.exe
 0000:fffdc000       .debug$S                   10000000     node:node.exe
 0000:fffdc000       .debug$S                   10000000     node:node.exe
 0000:fffdc000       .debug$S                   10000000     node:node.exe
 0000:fffdc000       .debug$S                   10000000     node:node.exe
 0000:fffdc000       .debug$S                   10000000     node:node.exe
 0000:fffdc000       .debug$S                   10000000     node:node.exe
 0000:fffdc000       .debug$S                   10000000     node:node.exe
 0000:fffdc000       .debug$S                   10000000     node:node.exe
 0000:fffdc000       .debug$S                   10000000     node:node.exe
 0000:fffdc000       .debug$S                   10000000     node:node.exe
 0000:fffdc000       .debug$S                   10000000     node:node.exe
 0000:fffdc000       .debug$S                   10000000     node:node.exe
 0000:fffdc000       .debug$S                   10000000     node:node.exe
 0000:fffdc000       .debug$S                   10000000     node:node.exe
 0000:fffdc000       .debug$S                   10000000     node:node.exe
 0000:fffdc000       .debug$S                   10000000     node:node.exe
 0000:fffdc000       .debug$S                   10000000     node:node.exe
 0000:fffdc000       .debug$S                   10000000     node:node.exe
 0000:fffdc000       .debug$S                   10000000     node:node.exe
 0000:fffdc000       .debug$S                   10000000     node:node.exe
 0000:fffdc000       .debug$S                   10000000     node:node.exe
 0000:fffdc000       .debug$S                   10000000     node:node.exe
 0000:fffdc000       .debug$S                   10000000     node:node.exe
 0000:fffdc000       .debug$S                   10000000     node:node.exe
 0000:fffdc000       .debug$S                   10000000     node:node.exe
 0000:fffdc000       .debug$S                   10000000     node:node.exe
 0000:fffdc000       .debug$S                   10000000     node:node.exe
 0000:fffdc000       .debug$S                   10000000     node:node.exe
 0000:fffdc000       .debug$S                   10000000     node:node.exe
 0000:fffdc000       .debug$S                   10000000     node:node.exe
 0000:fffdc000       .debug$S                   10000000     node:node.exe
 0000:fffdc000       .debug$S                   10000000     node:node.exe
 0000:fffdc000       .debug$S                   10000000     node:node.exe
 0000:fffdc000       .debug$S                   10000000     node:node.exe
 0000:fffdc000       .debug$S                   10000000     node:node.exe
 0000:fffdc000       .debug$S                   10000000     node:node.exe
 0000:fffdc000       .debug$S                   10000000     node:node.exe
 0000:fffdc000       .debug$S                   10000000     node:node.exe
 0000:fffdc000       .debug$S                   10000000     node:node.exe
 0000:fffdc000       .debug$S                   10000000     node:node.exe
 0000:fffdc000       .debug$S                   10000000     node:node.exe
 0000:fffdc000       .debug$S                   10000000     node:node.exe
 0000:fffdc000       .debug$S                   10000000     node:node.exe
 0000:fffdc000       .debug$S                   10000000     node:node.exe
 0000:fffdc000       .debug$S                   10000000     node:node.exe
 0000:fffdc000       .debug$S                   10000000     node:node.exe
 0000:fffdc000       .debug$S                   10000000     node:node.exe
 0000:fffdc000       .debug$S                   10000000     kernel32:KERNEL32.dll
 0000:fffdc000       .debug$S                   10000000     kernel32:KERNEL32.dll
 0000:fffdc000       .debug$S                   10000000     kernel32:KERNEL32.dll
 0000:fffdc000       .debug$S                   10000000     kernel32:KERNEL32.dll
 0000:fffdc000       .debug$S                   10000000     kernel32:KERNEL32.dll
 0000:fffdc000       .debug$S                   10000000     kernel32:KERNEL32.dll
 0000:fffdc000       .debug$S                   10000000     kernel32:KERNEL32.dll
 0000:fffdc000       .debug$S                   10000000     kernel32:KERNEL32.dll
 0000:fffdc000       .debug$S                   10000000     kernel32:KERNEL32.dll
 0000:fffdc000       .debug$S                   10000000     kernel32:KERNEL32.dll
 0000:fffdc000       .debug$S                   10000000     kernel32:KERNEL32.dll
 0000:fffdc000       .debug$S                   10000000     kernel32:KERNEL32.dll
 0001:00000000       ??__Epiecewise_construct@std@@YAXXZ 10001000 f   bufferutil.obj
 0001:00000010       ??__Eallocator_arg@std@@YAXXZ 10001010 f   bufferutil.obj
 0001:00001250       ?FunctionCallbackWrapper@imp@Nan@@YAXABV?$FunctionCallbackInfo@VValue@v8@@@v8@@@Z 10002250 f   bufferutil.obj
 0001:00001ac0       __register_bufferutil      10002ac0 f   bufferutil.obj
 0001:00001b60       _load_exe_hook@8           10002b60 f   win_delay_load_hook.obj
 0001:00001f00       $$000000                   10002f00     LIBCMT:memmove.obj
 0001:00002150       LeadUpVec                  10003150     LIBCMT:memmove.obj
 0001:000021cc       UnwindUpVec                100031cc     LIBCMT:memmove.obj
 0001:00002238       TrailUpVec                 10003238     LIBCMT:memmove.obj
 0001:000022dc       LeadDownVec                100032dc     LIBCMT:memmove.obj
 0001:00002368       UnwindDownVec              10003368     LIBCMT:memmove.obj
 0001:000023d4       TrailDownVec               100033d4     LIBCMT:memmove.obj
 0001:00002bcc       _swprintf                  10003bcc f   LIBCMT:wassert.obj
 0001:00002c5b       __onexit_nolock            10003c5b f   LIBCMT:onexit.obj
 0001:000030d2       ___DllMainCRTStartup       100040d2 f   LIBCMT:dllcrt0.obj
 0001:00003210       $$000000                   10004210     LIBCMT:memcpy.obj
 0001:00003460       LeadUpVec                  10004460     LIBCMT:memcpy.obj
 0001:000034dc       UnwindUpVec                100044dc     LIBCMT:memcpy.obj
 0001:00003548       TrailUpVec                 10004548     LIBCMT:memcpy.obj
 0001:000035ec       LeadDownVec                100045ec     LIBCMT:memcpy.obj
 0001:00003678       UnwindDownVec              10004678     LIBCMT:memcpy.obj
 0001:000036e4       TrailDownVec               100046e4     LIBCMT:memcpy.obj
 0001:00003860       $$000000                   10004860     LIBCMT:strlen.obj
 0001:000043ca       __initterm                 100053ca f   LIBCMT:crt0dat.obj
 0001:00004434       _doexit                    10005434 f   LIBCMT:crt0dat.obj
 0001:0000462e       _xtow_s@20                 1000562e f   LIBCMT:xtows.obj
 0001:000049a3       _flsall                    100059a3 f   LIBCMT:fflush.obj
 0001:00004f28       _siglookup                 10005f28 f   LIBCMT:winsig.obj
 0001:00005470       $$000000                   10006470     LIBCMT:sehprolg4.obj
 0001:000056b0       $$000000                   100066b0     LIBCMT:sqrt.obj
 0001:000062d3       ?CPtoLocaleName@@YAPB_WH@Z 100072d3 f   LIBCMT:mbctype.obj
 0001:0000630d       ?getSystemCP@@YAHH@Z       1000730d f   LIBCMT:mbctype.obj
 0001:0000637b       ?setSBCS@@YAXPAUthreadmbcinfostruct@@@Z 1000737b f   LIBCMT:mbctype.obj
 0001:000063da       ?setSBUpLow@@YAXPAUthreadmbcinfostruct@@@Z 100073da f   LIBCMT:mbctype.obj
 0001:00007475       _parse_cmdline             10008475 f   LIBCMT:stdargv.obj
 0001:00007c00       $$000000                   10008c00     LIBCMT:lowhelpr.obj
 0001:00007d20       $$000000                   10008d20     LIBCMT:strcmp.obj
 0001:0000823e       __cftoe2_l                 1000923e f   LIBCMT:cvt.obj
 0001:0000845d       __cftof2_l                 1000945d f   LIBCMT:cvt.obj
 0001:00008893       __shift                    10009893 f   LIBCMT:cvt.obj
 0001:00008960       $$000000                   10009960     LIBCMT:memset.obj
 0001:00008da0       $$000000                   10009da0     LIBCMT:ulldvrm.obj
 0001:0000a547       $LN267                     1000b547     LIBCMT:woutput.obj
 0001:0000a567       _write_char                1000b567 f   LIBCMT:woutput.obj
 0001:0000a59d       _write_multi_char          1000b59d f   LIBCMT:woutput.obj
 0001:0000a5c9       _write_string              1000b5c9 f   LIBCMT:woutput.obj
 0001:0000a980       $$000000                   1000b980     LIBCMT:exsup4.obj
 0001:0000aa10       __unwind_handler4          1000ba10 f   LIBCMT:exsup4.obj
 0001:0000ac30       $$000000                   1000bc30     LIBCMT:87disp.obj
 0001:0000ae00       $$000000                   1000be00     LIBCMT:genexcep.obj
 0001:0000ae60       $$000000                   1000be60     LIBCMT:common.obj
 0001:0000b4d2       ?__crtLCMapStringA_stat@@YAHPAUlocaleinfo_struct@@PB_WKPBDHPADHHH@Z 1000c4d2 f   LIBCMT:a_map.obj
 0001:0000b71c       ?__crtGetStringTypeA_stat@@YAHPAUlocaleinfo_struct@@KPBDHPAGHH@Z 1000c71c f   LIBCMT:a_str.obj
 0001:0000b950       ?x_ismbbtype_l@@YAHPAUlocaleinfo_struct@@IHH@Z 1000c950 f   LIBCMT:ismbbyte.obj
 0001:0000b9c0       $$000000                   1000c9c0     LIBCMT:exsup.obj
 0001:0000b9e0       __unwind_handler           1000c9e0 f   LIBCMT:exsup.obj
 0001:0000bb80       $$000000                   1000cb80     LIBCMT:strrchr.obj
 0001:0000c010       $$000000                   1000d010     LIBCMT:lldvrm.obj
 0001:0000c0f0       $$000000                   1000d0f0     LIBCMT:ullshr.obj
 0001:0000c7e0       $$000000                   1000d7e0     LIBCMT:chkstk.obj
 0001:0000c9f0       $$000000                   1000d9f0     LIBCMT:alloca16.obj
 0001:0000dd81       $LN333                     1000ed81     LIBCMT:strgtold.obj
 0001:0000e785       ___hw_cw_sse2              1000f785 f   LIBCMT:ieee87.obj
 0001:0000eb30       __hw_cw                    1000fb30 f   LIBCMT:ieee87.obj
 0001:0000f200       $$000000                   10010200     LIBCMT:llmul.obj
 0002:00000108       _piecewise_construct$initializer$ 10011108     bufferutil.obj
 0002:0000010c       _allocator_arg$initializer$ 1001110c     bufferutil.obj
 0002:0000011c       _pinit                     1001111c     LIBCMT:onexit.obj
 0002:00000120       _pinit                     10011120     LIBCMT:cpu_disp.obj
 0002:00000124       _pinit                     10011124     LIBCMT:_file.obj
 0002:00000128       _pinit                     10011128     LIBCMT:mbctype.obj
 0002:00000134       _pterm                     10011134     LIBCMT:wsetloca.obj
 0002:00000138       _pterm                     10011138     LIBCMT:initcon.obj
 0002:0000013c       _pterm                     1001113c     LIBCMT:_file.obj
 0002:000001a0       __Win_errtab               100111a0     libcpmt:syserror.obj
 0002:000003f8       __Sys_errtab               100113f8     libcpmt:syserror.obj
 0002:00001180       ?ExceptionTemplate@?1??_CxxThrowException@@9@8@4UEHExceptionRecord@@B 10012180     LIBCMT:throw.obj
 0002:000011cc       _GS_ExceptionPointers      100121cc     LIBCMT:gs_report.obj
 0002:00001278       _rterrs                    10012278     LIBCMT:crt0msg.obj
 0002:00001d14       __mb_locale_names          10012d14     LIBCMT:mbctype.obj
 0002:000020b0       __first_127char            100130b0     LIBCMT:wsetloca.obj
 0002:00004554       One                        10015554     LIBCMT:87disp.obj
 0002:0000455c       XAMtoTagTab                1001555c     LIBCMT:87disp.obj
 0002:00004570       One                        10015570     LIBCMT:common.obj
 0002:00004584       DblMax                     10015584     LIBCMT:common.obj
 0002:0000458c       DblMin                     1001558c     LIBCMT:common.obj
 0002:00004594       IeeeAdjO                   10015594     LIBCMT:common.obj
 0002:0000459c       IeeeAdjU                   1001559c     LIBCMT:common.obj
 0002:000045a4       _infinity                  100155a4     LIBCMT:common.obj
 0002:000045ac       _zero                      100155ac     LIBCMT:common.obj
 0002:00004dc8       _tokenTable                10015dc8     LIBCMT:undname.obj
 0002:00004e00       _nameTable                 10015e00     LIBCMT:undname.obj
 0002:00004f40       _rttiTable                 10015f40     LIBCMT:undname.obj
 0002:00005c08       __sehtable$__onexit        10016c08     LIBCMT:onexit.obj
 0002:00005c28       __sehtable$__CRT_INIT@12   10016c28     LIBCMT:dllcrt0.obj
 0002:00005c48       __sehtable$___DllMainCRTStartup 10016c48     LIBCMT:dllcrt0.obj
 0002:00005c68       __sehtable$_doexit         10016c68     LIBCMT:crt0dat.obj
 0002:00005c88       __sehtable$_fflush         10016c88     LIBCMT:fflush.obj
 0002:00005ca8       __sehtable$_flsall         10016ca8     LIBCMT:fflush.obj
 0002:00005cd0       __sehtable$_setvbuf        10016cd0     LIBCMT:setvbuf.obj
 0002:00005cf0       __sehtable$_fwprintf       10016cf0     LIBCMT:fwprintf.obj
 0002:00005d10       __sehtable$_raise          10016d10     LIBCMT:winsig.obj
 0002:00005d30       __sehtable$___set_fpsr_sse2 10016d30     LIBCMT:fpctrl.obj
 0002:00005d50       __sehtable$___updatetlocinfo 10016d50     LIBCMT:localref.obj
 0002:00005d70       __sehtable$___updatetmbcinfo 10016d70     LIBCMT:mbctype.obj
 0002:00005d90       __sehtable$__setmbcp       10016d90     LIBCMT:mbctype.obj
 0002:00005db0       __sehtable$__freefls@4     10016db0     LIBCMT:tidtable.obj
 0002:00005dd8       __sehtable$__initptd       10016dd8     LIBCMT:tidtable.obj
 0002:00005e00       __sehtable$__locterm       10016e00     LIBCMT:wsetloca.obj
 0002:00005e20       __sehtable$__ioinit        10016e20     LIBCMT:ioinit.obj
 0002:00005e40       __sehtable$?terminate@@YAXXZ 10016e40     LIBCMT:hooks.obj
 0002:00005e60       __sehtable$___DestructExceptionObject 10016e60     LIBCMT:frame.obj
 0002:00005e80       __sehtable$?_Type_info_dtor@type_info@@CAXPAV1@@Z 10016e80     LIBCMT:typname.obj
 0002:00005ea0       __sehtable$__mtinitlocknum 10016ea0     LIBCMT:mlock.obj
 0002:00005ec0       __sehtable$__IsNonwritableInCurrentImage 10016ec0     LIBCMT:pesect.obj
 0002:00005ee0       __sehtable$__fcloseall     10016ee0     LIBCMT:closeall.obj
 0002:00005f00       __sehtable$__commit        10016f00     LIBCMT:commit.obj
 0002:00005f20       __sehtable$__write         10016f20     LIBCMT:write.obj
 0002:00005f40       __sehtable$_fclose         10016f40     LIBCMT:fclose.obj
 0002:00005f60       __sehtable$___lock_fhandle 10016f60     LIBCMT:osfinfo.obj
 0002:00005f80       __sehtable$__lseeki64      10016f80     LIBCMT:lseeki64.obj
 0002:00005fa0       __sehtable$__close         10016fa0     LIBCMT:close.obj
 0002:000075e0       .edata                     100185e0     bufferutil.exp
 0002:00007608       rgpv                       10018608     bufferutil.exp
 0002:00007a18       rgszName                   10018a18     bufferutil.exp
 0002:00007e28       rgwOrd                     10018e28     bufferutil.exp
 0002:00008030       szName                     10019030     bufferutil.exp
 0002:00008040       $N00001                    10019040     bufferutil.exp
 0002:0000806b       $N00002                    1001906b     bufferutil.exp
 0002:0000808f       $N00003                    1001908f     bufferutil.exp
 0002:000080b7       $N00004                    100190b7     bufferutil.exp
 0002:000080da       $N00005                    100190da     bufferutil.exp
 0002:00008103       $N00006                    10019103     bufferutil.exp
 0002:0000812e       $N00007                    1001912e     bufferutil.exp
 0002:00008153       $N00008                    10019153     bufferutil.exp
 0002:00008186       $N00009                    10019186     bufferutil.exp
 0002:000081ba       $N00010                    100191ba     bufferutil.exp
 0002:000081ea       $N00011                    100191ea     bufferutil.exp
 0002:00008216       $N00012                    10019216     bufferutil.exp
 0002:0000823c       $N00013                    1001923c     bufferutil.exp
 0002:00008275       $N00014                    10019275     bufferutil.exp
 0002:000082a7       $N00015                    100192a7     bufferutil.exp
 0002:000082d3       $N00016                    100192d3     bufferutil.exp
 0002:00008303       $N00017                    10019303     bufferutil.exp
 0002:0000831d       $N00018                    1001931d     bufferutil.exp
 0002:0000833f       $N00019                    1001933f     bufferutil.exp
 0002:0000836b       $N00020                    1001936b     bufferutil.exp
 0002:00008391       $N00021                    10019391     bufferutil.exp
 0002:000083b3       $N00022                    100193b3     bufferutil.exp
 0002:000083d7       $N00023                    100193d7     bufferutil.exp
 0002:000083fb       $N00024                    100193fb     bufferutil.exp
 0002:0000841e       $N00025                    1001941e     bufferutil.exp
 0002:00008436       $N00026                    10019436     bufferutil.exp
 0002:00008469       $N00027                    10019469     bufferutil.exp
 0002:00008499       $N00028                    10019499     bufferutil.exp
 0002:000084bf       $N00029                    100194bf     bufferutil.exp
 0002:000084f1       $N00030                    100194f1     bufferutil.exp
 0002:0000851d       $N00031                    1001951d     bufferutil.exp
 0002:0000854d       $N00032                    1001954d     bufferutil.exp
 0002:00008573       $N00033                    10019573     bufferutil.exp
 0002:0000858f       $N00034                    1001958f     bufferutil.exp
 0002:000085ba       $N00035                    100195ba     bufferutil.exp
 0002:000085eb       $N00036                    100195eb     bufferutil.exp
 0002:0000860a       $N00037                    1001960a     bufferutil.exp
 0002:0000862f       $N00038                    1001962f     bufferutil.exp
 0002:00008658       $N00039                    10019658     bufferutil.exp
 0002:00008679       $N00040                    10019679     bufferutil.exp
 0002:000086a0       $N00041                    100196a0     bufferutil.exp
 0002:000086d0       $N00042                    100196d0     bufferutil.exp
 0002:00008706       $N00043                    10019706     bufferutil.exp
 0002:00008727       $N00044                    10019727     bufferutil.exp
 0002:00008745       $N00045                    10019745     bufferutil.exp
 0002:00008767       $N00046                    10019767     bufferutil.exp
 0002:00008785       $N00047                    10019785     bufferutil.exp
 0002:000087a8       $N00048                    100197a8     bufferutil.exp
 0002:000087ca       $N00049                    100197ca     bufferutil.exp
 0002:000087fb       $N00050                    100197fb     bufferutil.exp
 0002:0000883a       $N00051                    1001983a     bufferutil.exp
 0002:00008860       $N00052                    10019860     bufferutil.exp
 0002:00008886       $N00053                    10019886     bufferutil.exp
 0002:000088a8       $N00054                    100198a8     bufferutil.exp
 0002:000088d2       $N00055                    100198d2     bufferutil.exp
 0002:00008900       $N00056                    10019900     bufferutil.exp
 0002:0000892d       $N00057                    1001992d     bufferutil.exp
 0002:00008955       $N00058                    10019955     bufferutil.exp
 0002:00008979       $N00059                    10019979     bufferutil.exp
 0002:00008998       $N00060                    10019998     bufferutil.exp
 0002:000089bc       $N00061                    100199bc     bufferutil.exp
 0002:000089df       $N00062                    100199df     bufferutil.exp
 0002:00008a00       $N00063                    10019a00     bufferutil.exp
 0002:00008a1e       $N00064                    10019a1e     bufferutil.exp
 0002:00008a3b       $N00065                    10019a3b     bufferutil.exp
 0002:00008a5c       $N00066                    10019a5c     bufferutil.exp
 0002:00008a7a       $N00067                    10019a7a     bufferutil.exp
 0002:00008aa1       $N00068                    10019aa1     bufferutil.exp
 0002:00008ac1       $N00069                    10019ac1     bufferutil.exp
 0002:00008ae7       $N00070                    10019ae7     bufferutil.exp
 0002:00008b07       $N00071                    10019b07     bufferutil.exp
 0002:00008b2f       $N00072                    10019b2f     bufferutil.exp
 0002:00008b60       $N00073                    10019b60     bufferutil.exp
 0002:00008b83       $N00074                    10019b83     bufferutil.exp
 0002:00008ba4       $N00075                    10019ba4     bufferutil.exp
 0002:00008bc4       $N00076                    10019bc4     bufferutil.exp
 0002:00008bf0       $N00077                    10019bf0     bufferutil.exp
 0002:00008c1d       $N00078                    10019c1d     bufferutil.exp
 0002:00008c3d       $N00079                    10019c3d     bufferutil.exp
 0002:00008c65       $N00080                    10019c65     bufferutil.exp
 0002:00008c82       $N00081                    10019c82     bufferutil.exp
 0002:00008cad       $N00082                    10019cad     bufferutil.exp
 0002:00008cd0       $N00083                    10019cd0     bufferutil.exp
 0002:00008cf4       $N00084                    10019cf4     bufferutil.exp
 0002:00008d18       $N00085                    10019d18     bufferutil.exp
 0002:00008d3d       $N00086                    10019d3d     bufferutil.exp
 0002:00008d5d       $N00087                    10019d5d     bufferutil.exp
 0002:00008d83       $N00088                    10019d83     bufferutil.exp
 0002:00008da3       $N00089                    10019da3     bufferutil.exp
 0002:00008dc9       $N00090                    10019dc9     bufferutil.exp
 0002:00008deb       $N00091                    10019deb     bufferutil.exp
 0002:00008e0f       $N00092                    10019e0f     bufferutil.exp
 0002:00008e33       $N00093                    10019e33     bufferutil.exp
 0002:00008e58       $N00094                    10019e58     bufferutil.exp
 0002:00008e78       $N00095                    10019e78     bufferutil.exp
 0002:00008e9d       $N00096                    10019e9d     bufferutil.exp
 0002:00008ec1       $N00097                    10019ec1     bufferutil.exp
 0002:00008eec       $N00098                    10019eec     bufferutil.exp
 0002:00008f13       $N00099                    10019f13     bufferutil.exp
 0002:00008f35       $N00100                    10019f35     bufferutil.exp
 0002:00008f51       $N00101                    10019f51     bufferutil.exp
 0002:00008f70       $N00102                    10019f70     bufferutil.exp
 0002:00008f91       $N00103                    10019f91     bufferutil.exp
 0002:00008fb2       $N00104                    10019fb2     bufferutil.exp
 0002:00008fcf       $N00105                    10019fcf     bufferutil.exp
 0002:00008fec       $N00106                    10019fec     bufferutil.exp
 0002:0000900e       $N00107                    1001a00e     bufferutil.exp
 0002:00009024       $N00108                    1001a024     bufferutil.exp
 0002:00009055       $N00109                    1001a055     bufferutil.exp
 0002:00009083       $N00110                    1001a083     bufferutil.exp
 0002:000090a7       $N00111                    1001a0a7     bufferutil.exp
 0002:000090d7       $N00112                    1001a0d7     bufferutil.exp
 0002:00009101       $N00113                    1001a101     bufferutil.exp
 0002:0000912f       $N00114                    1001a12f     bufferutil.exp
 0002:00009153       $N00115                    1001a153     bufferutil.exp
 0002:000091ab       $N00116                    1001a1ab     bufferutil.exp
 0002:00009204       $N00117                    1001a204     bufferutil.exp
 0002:00009241       $N00118                    1001a241     bufferutil.exp
 0002:0000926d       $N00119                    1001a26d     bufferutil.exp
 0002:0000929f       $N00120                    1001a29f     bufferutil.exp
 0002:000092d3       $N00121                    1001a2d3     bufferutil.exp
 0002:000092f9       $N00122                    1001a2f9     bufferutil.exp
 0002:00009325       $N00123                    1001a325     bufferutil.exp
 0002:00009355       $N00124                    1001a355     bufferutil.exp
 0002:0000937d       $N00125                    1001a37d     bufferutil.exp
 0002:000093ab       $N00126                    1001a3ab     bufferutil.exp
 0002:000093d4       $N00127                    1001a3d4     bufferutil.exp
 0002:000093f9       $N00128                    1001a3f9     bufferutil.exp
 0002:00009422       $N00129                    1001a422     bufferutil.exp
 0002:0000944f       $N00130                    1001a44f     bufferutil.exp
 0002:0000947c       $N00131                    1001a47c     bufferutil.exp
 0002:000094a5       $N00132                    1001a4a5     bufferutil.exp
 0002:000094d0       $N00133                    1001a4d0     bufferutil.exp
 0002:000094f6       $N00134                    1001a4f6     bufferutil.exp
 0002:00009521       $N00135                    1001a521     bufferutil.exp
 0002:0000954b       $N00136                    1001a54b     bufferutil.exp
 0002:00009573       $N00137                    1001a573     bufferutil.exp
 0002:00009597       $N00138                    1001a597     bufferutil.exp
 0002:000095bc       $N00139                    1001a5bc     bufferutil.exp
 0002:000095e3       $N00140                    1001a5e3     bufferutil.exp
 0002:00009610       $N00141                    1001a610     bufferutil.exp
 0002:00009637       $N00142                    1001a637     bufferutil.exp
 0002:0000965f       $N00143                    1001a65f     bufferutil.exp
 0002:00009686       $N00144                    1001a686     bufferutil.exp
 0002:000096b8       $N00145                    1001a6b8     bufferutil.exp
 0002:000096dc       $N00146                    1001a6dc     bufferutil.exp
 0002:0000970e       $N00147                    1001a70e     bufferutil.exp
 0002:00009735       $N00148                    1001a735     bufferutil.exp
 0002:00009762       $N00149                    1001a762     bufferutil.exp
 0002:00009789       $N00150                    1001a789     bufferutil.exp
 0002:000097b6       $N00151                    1001a7b6     bufferutil.exp
 0002:000097e1       $N00152                    1001a7e1     bufferutil.exp
 0002:0000980d       $N00153                    1001a80d     bufferutil.exp
 0002:00009834       $N00154                    1001a834     bufferutil.exp
 0002:00009860       $N00155                    1001a860     bufferutil.exp
 0002:0000988b       $N00156                    1001a88b     bufferutil.exp
 0002:000098bd       $N00157                    1001a8bd     bufferutil.exp
 0002:000098e5       $N00158                    1001a8e5     bufferutil.exp
 0002:00009913       $N00159                    1001a913     bufferutil.exp
 0002:00009949       $N00160                    1001a949     bufferutil.exp
 0002:00009987       $N00161                    1001a987     bufferutil.exp
 0002:000099c0       $N00162                    1001a9c0     bufferutil.exp
 0002:000099f9       $N00163                    1001a9f9     bufferutil.exp
 0002:00009a54       $N00164                    1001aa54     bufferutil.exp
 0002:00009a73       $N00165                    1001aa73     bufferutil.exp
 0002:00009ab0       $N00166                    1001aab0     bufferutil.exp
 0002:00009af9       $N00167                    1001aaf9     bufferutil.exp
 0002:00009b5a       $N00168                    1001ab5a     bufferutil.exp
 0002:00009b73       $N00169                    1001ab73     bufferutil.exp
 0002:00009bb0       $N00170                    1001abb0     bufferutil.exp
 0002:00009bdf       $N00171                    1001abdf     bufferutil.exp
 0002:00009c57       $N00172                    1001ac57     bufferutil.exp
 0002:00009c7f       $N00173                    1001ac7f     bufferutil.exp
 0002:00009cc7       $N00174                    1001acc7     bufferutil.exp
 0002:00009cdd       $N00175                    1001acdd     bufferutil.exp
 0002:00009d10       $N00176                    1001ad10     bufferutil.exp
 0002:00009d2a       $N00177                    1001ad2a     bufferutil.exp
 0002:00009d46       $N00178                    1001ad46     bufferutil.exp
 0002:00009d65       $N00179                    1001ad65     bufferutil.exp
 0002:00009d9a       $N00180                    1001ad9a     bufferutil.exp
 0002:00009dda       $N00181                    1001adda     bufferutil.exp
 0002:00009e32       $N00182                    1001ae32     bufferutil.exp
 0002:00009e51       $N00183                    1001ae51     bufferutil.exp
 0002:00009e72       $N00184                    1001ae72     bufferutil.exp
 0002:00009e96       $N00185                    1001ae96     bufferutil.exp
 0002:00009ee2       $N00186                    1001aee2     bufferutil.exp
 0002:00009f2e       $N00187                    1001af2e     bufferutil.exp
 0002:00009f87       $N00188                    1001af87     bufferutil.exp
 0002:00009fe2       $N00189                    1001afe2     bufferutil.exp
 0002:0000a021       $N00190                    1001b021     bufferutil.exp
 0002:0000a079       $N00191                    1001b079     bufferutil.exp
 0002:0000a0d5       $N00192                    1001b0d5     bufferutil.exp
 0002:0000a0f5       $N00193                    1001b0f5     bufferutil.exp
 0002:0000a16c       $N00194                    1001b16c     bufferutil.exp
 0002:0000a199       $N00195                    1001b199     bufferutil.exp
 0002:0000a2ad       $N00196                    1001b2ad     bufferutil.exp
 0002:0000a2db       $N00197                    1001b2db     bufferutil.exp
 0002:0000a311       $N00198                    1001b311     bufferutil.exp
 0002:0000a34b       $N00199                    1001b34b     bufferutil.exp
 0002:0000a37d       $N00200                    1001b37d     bufferutil.exp
 0002:0000a3b3       $N00201                    1001b3b3     bufferutil.exp
 0002:0000a3e7       $N00202                    1001b3e7     bufferutil.exp
 0002:0000a41b       $N00203                    1001b41b     bufferutil.exp
 0002:0000a44f       $N00204                    1001b44f     bufferutil.exp
 0002:0000a483       $N00205                    1001b483     bufferutil.exp
 0002:0000a4c5       $N00206                    1001b4c5     bufferutil.exp
 0002:0000a515       $N00207                    1001b515     bufferutil.exp
 0002:0000a56e       $N00208                    1001b56e     bufferutil.exp
 0002:0000a5bf       $N00209                    1001b5bf     bufferutil.exp
 0002:0000a603       $N00210                    1001b603     bufferutil.exp
 0002:0000a689       $N00211                    1001b689     bufferutil.exp
 0002:0000a6ac       $N00212                    1001b6ac     bufferutil.exp
 0002:0000a6d9       $N00213                    1001b6d9     bufferutil.exp
 0002:0000a709       $N00214                    1001b709     bufferutil.exp
 0002:0000a73e       $N00215                    1001b73e     bufferutil.exp
 0002:0000a765       $N00216                    1001b765     bufferutil.exp
 0002:0000a78c       $N00217                    1001b78c     bufferutil.exp
 0002:0000a7b7       $N00218                    1001b7b7     bufferutil.exp
 0002:0000a7e2       $N00219                    1001b7e2     bufferutil.exp
 0002:0000a81f       $N00220                    1001b81f     bufferutil.exp
 0002:0000a848       $N00221                    1001b848     bufferutil.exp
 0002:0000a875       $N00222                    1001b875     bufferutil.exp
 0002:0000a8a4       $N00223                    1001b8a4     bufferutil.exp
 0002:0000a8bf       $N00224                    1001b8bf     bufferutil.exp
 0002:0000a8de       $N00225                    1001b8de     bufferutil.exp
 0002:0000a901       $N00226                    1001b901     bufferutil.exp
 0002:0000a924       $N00227                    1001b924     bufferutil.exp
 0002:0000a945       $N00228                    1001b945     bufferutil.exp
 0002:0000a97a       $N00229                    1001b97a     bufferutil.exp
 0002:0000a99e       $N00230                    1001b99e     bufferutil.exp
 0002:0000a9be       $N00231                    1001b9be     bufferutil.exp
 0002:0000a9f4       $N00232                    1001b9f4     bufferutil.exp
 0002:0000aa28       $N00233                    1001ba28     bufferutil.exp
 0002:0000aa5b       $N00234                    1001ba5b     bufferutil.exp
 0002:0000aa8f       $N00235                    1001ba8f     bufferutil.exp
 0002:0000aaac       $N00236                    1001baac     bufferutil.exp
 0002:0000aada       $N00237                    1001bada     bufferutil.exp
 0002:0000ab07       $N00238                    1001bb07     bufferutil.exp
 0002:0000ab3a       $N00239                    1001bb3a     bufferutil.exp
 0002:0000ab69       $N00240                    1001bb69     bufferutil.exp
 0002:0000ab9d       $N00241                    1001bb9d     bufferutil.exp
 0002:0000abc5       $N00242                    1001bbc5     bufferutil.exp
 0002:0000abfa       $N00243                    1001bbfa     bufferutil.exp
 0002:0000ac35       $N00244                    1001bc35     bufferutil.exp
 0002:0000ac6e       $N00245                    1001bc6e     bufferutil.exp
 0002:0000aca6       $N00246                    1001bca6     bufferutil.exp
 0002:0000acdf       $N00247                    1001bcdf     bufferutil.exp
 0002:0000ad12       $N00248                    1001bd12     bufferutil.exp
 0002:0000ad58       $N00249                    1001bd58     bufferutil.exp
 0002:0000ad7c       $N00250                    1001bd7c     bufferutil.exp
 0002:0000adb1       $N00251                    1001bdb1     bufferutil.exp
 0002:0000adde       $N00252                    1001bdde     bufferutil.exp
 0002:0000ae09       $N00253                    1001be09     bufferutil.exp
 0002:0000ae39       $N00254                    1001be39     bufferutil.exp
 0002:0000ae67       $N00255                    1001be67     bufferutil.exp
 0002:0000ae97       $N00256                    1001be97     bufferutil.exp
 0002:0000aec2       $N00257                    1001bec2     bufferutil.exp
 0002:0000aef8       $N00258                    1001bef8     bufferutil.exp
 0002:0000af27       $N00259                    1001bf27     bufferutil.exp
 0002:0000af51       $N00260                    1001bf51     bufferutil.exp
 0002:0000b0a8       .idata$6                   1001c0a8     kernel32:KERNEL32.dll
 0003:00000000       __assertstring             1001d000     LIBCMT:wassert.obj
 0003:00000050       _dotdotdot                 1001d050     LIBCMT:wassert.obj
 0003:00000054       _newline                   1001d054     LIBCMT:wassert.obj
 0003:00000058       _dblnewline                1001d058     LIBCMT:wassert.obj
 0003:00000300       _NAME_                     1001d300     LIBCMT:sqrt.obj
 0003:00000330       ?_names@?1??_get_fname@@9@9 1001d330     LIBCMT:fpexcept.obj
 0003:00000418       _over                      1001d418     LIBCMT:fpctrl.obj
 0003:00000424       _under                     1001d424     LIBCMT:fpctrl.obj
 0003:00000430       ?__DAZ_ENABLED@?1??__set_fpsr_sse2@@9@9 1001d430     LIBCMT:fpctrl.obj
 0003:00000860       ___rgctypeflag             1001d860     LIBCMT:mbctype.obj
 0003:00000868       ___rgcode_page_info        1001d868     LIBCMT:mbctype.obj
 0003:00000960       _errtable                  1001d960     LIBCMT:dosmap.obj
 0003:00000ac8       _ErrnoNoMem                1001dac8     LIBCMT:dosmap.obj
 0003:00000acc       _DoserrorNoMem             1001dacc     LIBCMT:dosmap.obj
 0003:00000cfc       __ctype_loc_style          1001dcfc     LIBCMT:wsetloca.obj
 0003:00000d40       ?isPackaged@?1??__crtIsPackagedApp@@9@9 1001dd40     LIBCMT:winapisupp.obj
 0003:00000d80       __locktable                1001dd80     LIBCMT:mlock.obj
 0003:00000f30       _DoubleFormat              1001df30     LIBCMT:intrncvt.obj
 0003:00000f48       _FloatFormat               1001df48     LIBCMT:intrncvt.obj
 0003:00001238       __module                   1001e238     bufferutil.obj
 0003:000013e4       _allocator_arg             1001e3e4     libcpmt:syserror.obj
 0003:000013e5       _piecewise_construct       1001e3e5     libcpmt:syserror.obj
 0003:000013e6       __Tuple_alloc              1001e3e6     libcpmt:xthrow.obj
 0003:000013e7       _ignore                    1001e3e7     libcpmt:xthrow.obj
 0003:000013e8       _allocator_arg             1001e3e8     libcpmt:xthrow.obj
 0003:000013e9       _piecewise_construct       1001e3e9     libcpmt:xthrow.obj
 0003:000013ec       ___proc_attached           1001e3ec     LIBCMT:dllcrt0.obj
 0003:00001400       _GS_ExceptionRecord        1001e400     LIBCMT:gs_report.obj
 0003:00001450       _GS_ContextRecord          1001e450     LIBCMT:gs_report.obj
 0003:0000171c       _DebuggerWasPresent        1001e71c     LIBCMT:gs_report.obj
 0003:00001768       _ctrlc_action              1001e768     LIBCMT:winsig.obj
 0003:0000176c       _ctrlbreak_action          1001e76c     LIBCMT:winsig.obj
 0003:00001770       _abort_action              1001e770     LIBCMT:winsig.obj
 0003:00001774       _term_action               1001e774     LIBCMT:winsig.obj
 0003:00001778       _ConsoleCtrlHandler_Installed 1001e778     LIBCMT:winsig.obj
 0003:0000177c       ?pfnMessageBox@?1??__crtMessageBoxW@@9@9 1001e77c     LIBCMT:crtmboxw.obj
 0003:00001780       ?pfnGetActiveWindow@?1??__crtMessageBoxW@@9@9 1001e780     LIBCMT:crtmboxw.obj
 0003:00001784       ?pfnGetLastActivePopup@?1??__crtMessageBoxW@@9@9 1001e784     LIBCMT:crtmboxw.obj
 0003:00001788       ?pfnGetProcessWindowStation@?1??__crtMessageBoxW@@9@9 1001e788     LIBCMT:crtmboxw.obj
 0003:0000178c       ?pfnGetUserObjectInformation@?1??__crtMessageBoxW@@9@9 1001e78c     LIBCMT:crtmboxw.obj
 0003:00001798       ?outmsg@?9??_NMSG_WRITE@@9@9 1001e798     LIBCMT:crt0msg.obj
 0003:00001de4       _fSystemSet                1001ede4     LIBCMT:mbctype.obj
 0003:00001ef0       ?_pgmname@?1??_setargv@@9@9 1001eef0     LIBCMT:stdargv.obj
 0003:00002000       ___type_info_root_node     1001f000     LIBCMT:typname.obj
 0003:00002008       _lclcritsects              1001f008     LIBCMT:mlock.obj
 0003:00002158       _g_pfnRtlGenRandom         1001f158     LIBCMT:rand_s.obj
 0003:00002164       ___crtCallProc             1001f164     LIBCMT:winapinls.obj
 0003:0000219c       _heap                      1001f19c     LIBCMT:undname.obj
 0003:000021b4       ___enable_percent_n        1001f1b4     LIBCMT:printf.obj
 0003:000021d4       _allocator_arg             1001f1d4     bufferutil.obj
 0003:000021d5       _piecewise_construct       1001f1d5     bufferutil.obj
 0004:00000060       $R000000                   10021060     * linker generated manifest res *

 Exports

  ordinal    name

        1    ??0Allocator@ArrayBuffer@v8@@QAE@ABV012@@Z (public: __thiscall v8::ArrayBuffer::Allocator::Allocator(class v8::ArrayBuffer::Allocator const &))
        2    ??0Allocator@ArrayBuffer@v8@@QAE@XZ (public: __thiscall v8::ArrayBuffer::Allocator::Allocator(void))
        3    ??0CachedData@ScriptCompiler@v8@@QAE@XZ (public: __thiscall v8::ScriptCompiler::CachedData::CachedData(void))
        4    ??0Contents@ArrayBuffer@v8@@QAE@XZ (public: __thiscall v8::ArrayBuffer::Contents::Contents(void))
        5    ??0Contents@SharedArrayBuffer@v8@@QAE@XZ (public: __thiscall v8::SharedArrayBuffer::Contents::Contents(void))
        6    ??0ExtensionConfiguration@v8@@QAE@HQAPBD@Z (public: __thiscall v8::ExtensionConfiguration::ExtensionConfiguration(int,char const * * const))
        7    ??0ExtensionConfiguration@v8@@QAE@XZ (public: __thiscall v8::ExtensionConfiguration::ExtensionConfiguration(void))
        8    ??0ExternalOneByteStringResource@String@v8@@IAE@XZ (protected: __thiscall v8::String::ExternalOneByteStringResource::ExternalOneByteStringResource(void))
        9    ??0ExternalOneByteStringResourceImpl@v8@@QAE@PBDI@Z (public: __thiscall v8::ExternalOneByteStringResourceImpl::ExternalOneByteStringResourceImpl(char const *,unsigned int))
       10    ??0ExternalOneByteStringResourceImpl@v8@@QAE@XZ (public: __thiscall v8::ExternalOneByteStringResourceImpl::ExternalOneByteStringResourceImpl(void))
       11    ??0ExternalResourceVisitor@v8@@QAE@ABV01@@Z (public: __thiscall v8::ExternalResourceVisitor::ExternalResourceVisitor(class v8::ExternalResourceVisitor const &))
       12    ??0ExternalResourceVisitor@v8@@QAE@XZ (public: __thiscall v8::ExternalResourceVisitor::ExternalResourceVisitor(void))
       13    ??0ExternalSourceStream@ScriptCompiler@v8@@QAE@ABV012@@Z (public: __thiscall v8::ScriptCompiler::ExternalSourceStream::ExternalSourceStream(class v8::ScriptCompiler::ExternalSourceStream const &))
       14    ??0ExternalSourceStream@ScriptCompiler@v8@@QAE@XZ (public: __thiscall v8::ScriptCompiler::ExternalSourceStream::ExternalSourceStream(void))
       15    ??0ExternalStringResource@String@v8@@IAE@XZ (protected: __thiscall v8::String::ExternalStringResource::ExternalStringResource(void))
       16    ??0ExternalStringResourceBase@String@v8@@IAE@XZ (protected: __thiscall v8::String::ExternalStringResourceBase::ExternalStringResourceBase(void))
       17    ??0HandleScope@v8@@IAE@XZ (protected: __thiscall v8::HandleScope::HandleScope(void))
       18    ??0Locker@v8@@QAE@PAVIsolate@1@@Z (public: __thiscall v8::Locker::Locker(class v8::Isolate *))
       19    ??0PersistentHandleVisitor@v8@@QAE@ABV01@@Z (public: __thiscall v8::PersistentHandleVisitor::PersistentHandleVisitor(class v8::PersistentHandleVisitor const &))
       20    ??0PersistentHandleVisitor@v8@@QAE@XZ (public: __thiscall v8::PersistentHandleVisitor::PersistentHandleVisitor(void))
       21    ??0Scope@Isolate@v8@@QAE@PAV12@@Z (public: __thiscall v8::Isolate::Scope::Scope(class v8::Isolate *))
       22    ??0Unlocker@v8@@QAE@PAVIsolate@1@@Z (public: __thiscall v8::Unlocker::Unlocker(class v8::Isolate *))
       23    ??1Allocator@ArrayBuffer@v8@@UAE@XZ (public: virtual __thiscall v8::ArrayBuffer::Allocator::~Allocator(void))
       24    ??1EscapableHandleScope@v8@@QAE@XZ (public: __thiscall v8::EscapableHandleScope::~EscapableHandleScope(void))
       25    ??1Extension@v8@@UAE@XZ (public: virtual __thiscall v8::Extension::~Extension(void))
       26    ??1ExternalOneByteStringResource@String@v8@@UAE@XZ (public: virtual __thiscall v8::String::ExternalOneByteStringResource::~ExternalOneByteStringResource(void))
       27    ??1ExternalOneByteStringResourceImpl@v8@@UAE@XZ (public: virtual __thiscall v8::ExternalOneByteStringResourceImpl::~ExternalOneByteStringResourceImpl(void))
       28    ??1ExternalResourceVisitor@v8@@UAE@XZ (public: virtual __thiscall v8::ExternalResourceVisitor::~ExternalResourceVisitor(void))
       29    ??1ExternalSourceStream@ScriptCompiler@v8@@UAE@XZ (public: virtual __thiscall v8::ScriptCompiler::ExternalSourceStream::~ExternalSourceStream(void))
       30    ??1ExternalStringResource@String@v8@@UAE@XZ (public: virtual __thiscall v8::String::ExternalStringResource::~ExternalStringResource(void))
       31    ??1ExternalStringResourceBase@String@v8@@UAE@XZ (public: virtual __thiscall v8::String::ExternalStringResourceBase::~ExternalStringResourceBase(void))
       32    ??1PersistentHandleVisitor@v8@@UAE@XZ (public: virtual __thiscall v8::PersistentHandleVisitor::~PersistentHandleVisitor(void))
       33    ??1Scope@Isolate@v8@@QAE@XZ (public: __thiscall v8::Isolate::Scope::~Scope(void))
       34    ??4AccessorSignature@v8@@QAEAAV01@ABV01@@Z (public: class v8::AccessorSignature & __thiscall v8::AccessorSignature::operator=(class v8::AccessorSignature const &))
       35    ??4Allocator@ArrayBuffer@v8@@QAEAAV012@ABV012@@Z (public: class v8::ArrayBuffer::Allocator & __thiscall v8::ArrayBuffer::Allocator::operator=(class v8::ArrayBuffer::Allocator const &))
       36    ??4Array@v8@@QAEAAV01@ABV01@@Z (public: class v8::Array & __thiscall v8::Array::operator=(class v8::Array const &))
       37    ??4ArrayBuffer@v8@@QAEAAV01@ABV01@@Z (public: class v8::ArrayBuffer & __thiscall v8::ArrayBuffer::operator=(class v8::ArrayBuffer const &))
       38    ??4ArrayBufferView@v8@@QAEAAV01@ABV01@@Z (public: class v8::ArrayBufferView & __thiscall v8::ArrayBufferView::operator=(class v8::ArrayBufferView const &))
       39    ??4Boolean@v8@@QAEAAV01@ABV01@@Z (public: class v8::Boolean & __thiscall v8::Boolean::operator=(class v8::Boolean const &))
       40    ??4BooleanObject@v8@@QAEAAV01@ABV01@@Z (public: class v8::BooleanObject & __thiscall v8::BooleanObject::operator=(class v8::BooleanObject const &))
       41    ??4Contents@ArrayBuffer@v8@@QAEAAV012@ABV012@@Z (public: class v8::ArrayBuffer::Contents & __thiscall v8::ArrayBuffer::Contents::operator=(class v8::ArrayBuffer::Contents const &))
       42    ??4Contents@SharedArrayBuffer@v8@@QAEAAV012@ABV012@@Z (public: class v8::SharedArrayBuffer::Contents & __thiscall v8::SharedArrayBuffer::Contents::operator=(class v8::SharedArrayBuffer::Contents const &))
       43    ??4Context@v8@@QAEAAV01@ABV01@@Z (public: class v8::Context & __thiscall v8::Context::operator=(class v8::Context const &))
       44    ??4Data@v8@@QAEAAV01@ABV01@@Z (public: class v8::Data & __thiscall v8::Data::operator=(class v8::Data const &))
       45    ??4DataView@v8@@QAEAAV01@ABV01@@Z (public: class v8::DataView & __thiscall v8::DataView::operator=(class v8::DataView const &))
       46    ??4Date@v8@@QAEAAV01@ABV01@@Z (public: class v8::Date & __thiscall v8::Date::operator=(class v8::Date const &))
       47    ??4Exception@v8@@QAEAAV01@ABV01@@Z (public: class v8::Exception & __thiscall v8::Exception::operator=(class v8::Exception const &))
       48    ??4External@v8@@QAEAAV01@ABV01@@Z (public: class v8::External & __thiscall v8::External::operator=(class v8::External const &))
       49    ??4ExternalResourceVisitor@v8@@QAEAAV01@ABV01@@Z (public: class v8::ExternalResourceVisitor & __thiscall v8::ExternalResourceVisitor::operator=(class v8::ExternalResourceVisitor const &))
       50    ??4ExternalSourceStream@ScriptCompiler@v8@@QAEAAV012@ABV012@@Z (public: class v8::ScriptCompiler::ExternalSourceStream & __thiscall v8::ScriptCompiler::ExternalSourceStream::operator=(class v8::ScriptCompiler::ExternalSourceStream const &))
       51    ??4Float32Array@v8@@QAEAAV01@ABV01@@Z (public: class v8::Float32Array & __thiscall v8::Float32Array::operator=(class v8::Float32Array const &))
       52    ??4Float64Array@v8@@QAEAAV01@ABV01@@Z (public: class v8::Float64Array & __thiscall v8::Float64Array::operator=(class v8::Float64Array const &))
       53    ??4Function@v8@@QAEAAV01@ABV01@@Z (public: class v8::Function & __thiscall v8::Function::operator=(class v8::Function const &))
       54    ??4FunctionTemplate@v8@@QAEAAV01@ABV01@@Z (public: class v8::FunctionTemplate & __thiscall v8::FunctionTemplate::operator=(class v8::FunctionTemplate const &))
       55    ??4HeapObjectStatistics@v8@@QAEAAV01@ABV01@@Z (public: class v8::HeapObjectStatistics & __thiscall v8::HeapObjectStatistics::operator=(class v8::HeapObjectStatistics const &))
       56    ??4HeapSpaceStatistics@v8@@QAEAAV01@ABV01@@Z (public: class v8::HeapSpaceStatistics & __thiscall v8::HeapSpaceStatistics::operator=(class v8::HeapSpaceStatistics const &))
       57    ??4HeapStatistics@v8@@QAEAAV01@ABV01@@Z (public: class v8::HeapStatistics & __thiscall v8::HeapStatistics::operator=(class v8::HeapStatistics const &))
       58    ??4Int16Array@v8@@QAEAAV01@ABV01@@Z (public: class v8::Int16Array & __thiscall v8::Int16Array::operator=(class v8::Int16Array const &))
       59    ??4Int32@v8@@QAEAAV01@ABV01@@Z (public: class v8::Int32 & __thiscall v8::Int32::operator=(class v8::Int32 const &))
       60    ??4Int32Array@v8@@QAEAAV01@ABV01@@Z (public: class v8::Int32Array & __thiscall v8::Int32Array::operator=(class v8::Int32Array const &))
       61    ??4Int8Array@v8@@QAEAAV01@ABV01@@Z (public: class v8::Int8Array & __thiscall v8::Int8Array::operator=(class v8::Int8Array const &))
       62    ??4Integer@v8@@QAEAAV01@ABV01@@Z (public: class v8::Integer & __thiscall v8::Integer::operator=(class v8::Integer const &))
       63    ??4JSON@v8@@QAEAAV01@ABV01@@Z (public: class v8::JSON & __thiscall v8::JSON::operator=(class v8::JSON const &))
       64    ??4Map@v8@@QAEAAV01@ABV01@@Z (public: class v8::Map & __thiscall v8::Map::operator=(class v8::Map const &))
       65    ??4Message@v8@@QAEAAV01@ABV01@@Z (public: class v8::Message & __thiscall v8::Message::operator=(class v8::Message const &))
       66    ??4Name@v8@@QAEAAV01@ABV01@@Z (public: class v8::Name & __thiscall v8::Name::operator=(class v8::Name const &))
       67    ??4NativeWeakMap@v8@@QAEAAV01@ABV01@@Z (public: class v8::NativeWeakMap & __thiscall v8::NativeWeakMap::operator=(class v8::NativeWeakMap const &))
       68    ??4Number@v8@@QAEAAV01@ABV01@@Z (public: class v8::Number & __thiscall v8::Number::operator=(class v8::Number const &))
       69    ??4NumberObject@v8@@QAEAAV01@ABV01@@Z (public: class v8::NumberObject & __thiscall v8::NumberObject::operator=(class v8::NumberObject const &))
       70    ??4Object@v8@@QAEAAV01@ABV01@@Z (public: class v8::Object & __thiscall v8::Object::operator=(class v8::Object const &))
       71    ??4ObjectTemplate@v8@@QAEAAV01@ABV01@@Z (public: class v8::ObjectTemplate & __thiscall v8::ObjectTemplate::operator=(class v8::ObjectTemplate const &))
       72    ??4PersistentHandleVisitor@v8@@QAEAAV01@ABV01@@Z (public: class v8::PersistentHandleVisitor & __thiscall v8::PersistentHandleVisitor::operator=(class v8::PersistentHandleVisitor const &))
       73    ??4Primitive@v8@@QAEAAV01@ABV01@@Z (public: class v8::Primitive & __thiscall v8::Primitive::operator=(class v8::Primitive const &))
       74    ??4Promise@v8@@QAEAAV01@ABV01@@Z (public: class v8::Promise & __thiscall v8::Promise::operator=(class v8::Promise const &))
       75    ??4RegExp@v8@@QAEAAV01@ABV01@@Z (public: class v8::RegExp & __thiscall v8::RegExp::operator=(class v8::RegExp const &))
       76    ??4Resolver@Promise@v8@@QAEAAV012@ABV012@@Z (public: class v8::Promise::Resolver & __thiscall v8::Promise::Resolver::operator=(class v8::Promise::Resolver const &))
       77    ??4ResourceConstraints@v8@@QAEAAV01@ABV01@@Z (public: class v8::ResourceConstraints & __thiscall v8::ResourceConstraints::operator=(class v8::ResourceConstraints const &))
       78    ??4Script@v8@@QAEAAV01@ABV01@@Z (public: class v8::Script & __thiscall v8::Script::operator=(class v8::Script const &))
       79    ??4ScriptCompiler@v8@@QAEAAV01@ABV01@@Z (public: class v8::ScriptCompiler & __thiscall v8::ScriptCompiler::operator=(class v8::ScriptCompiler const &))
       80    ??4Set@v8@@QAEAAV01@ABV01@@Z (public: class v8::Set & __thiscall v8::Set::operator=(class v8::Set const &))
       81    ??4SharedArrayBuffer@v8@@QAEAAV01@ABV01@@Z (public: class v8::SharedArrayBuffer & __thiscall v8::SharedArrayBuffer::operator=(class v8::SharedArrayBuffer const &))
       82    ??4Signature@v8@@QAEAAV01@ABV01@@Z (public: class v8::Signature & __thiscall v8::Signature::operator=(class v8::Signature const &))
       83    ??4StackFrame@v8@@QAEAAV01@ABV01@@Z (public: class v8::StackFrame & __thiscall v8::StackFrame::operator=(class v8::StackFrame const &))
       84    ??4StackTrace@v8@@QAEAAV01@ABV01@@Z (public: class v8::StackTrace & __thiscall v8::StackTrace::operator=(class v8::StackTrace const &))
       85    ??4StartupData@v8@@QAEAAV01@ABV01@@Z (public: class v8::StartupData & __thiscall v8::StartupData::operator=(class v8::StartupData const &))
       86    ??4String@v8@@QAEAAV01@ABV01@@Z (public: class v8::String & __thiscall v8::String::operator=(class v8::String const &))
       87    ??4StringObject@v8@@QAEAAV01@ABV01@@Z (public: class v8::StringObject & __thiscall v8::StringObject::operator=(class v8::StringObject const &))
       88    ??4Symbol@v8@@QAEAAV01@ABV01@@Z (public: class v8::Symbol & __thiscall v8::Symbol::operator=(class v8::Symbol const &))
       89    ??4SymbolObject@v8@@QAEAAV01@ABV01@@Z (public: class v8::SymbolObject & __thiscall v8::SymbolObject::operator=(class v8::SymbolObject const &))
       90    ??4Template@v8@@QAEAAV01@ABV01@@Z (public: class v8::Template & __thiscall v8::Template::operator=(class v8::Template const &))
       91    ??4TypeSwitch@v8@@QAEAAV01@ABV01@@Z (public: class v8::TypeSwitch & __thiscall v8::TypeSwitch::operator=(class v8::TypeSwitch const &))
       92    ??4TypedArray@v8@@QAEAAV01@ABV01@@Z (public: class v8::TypedArray & __thiscall v8::TypedArray::operator=(class v8::TypedArray const &))
       93    ??4Uint16Array@v8@@QAEAAV01@ABV01@@Z (public: class v8::Uint16Array & __thiscall v8::Uint16Array::operator=(class v8::Uint16Array const &))
       94    ??4Uint32@v8@@QAEAAV01@ABV01@@Z (public: class v8::Uint32 & __thiscall v8::Uint32::operator=(class v8::Uint32 const &))
       95    ??4Uint32Array@v8@@QAEAAV01@ABV01@@Z (public: class v8::Uint32Array & __thiscall v8::Uint32Array::operator=(class v8::Uint32Array const &))
       96    ??4Uint8Array@v8@@QAEAAV01@ABV01@@Z (public: class v8::Uint8Array & __thiscall v8::Uint8Array::operator=(class v8::Uint8Array const &))
       97    ??4Uint8ClampedArray@v8@@QAEAAV01@ABV01@@Z (public: class v8::Uint8ClampedArray & __thiscall v8::Uint8ClampedArray::operator=(class v8::Uint8ClampedArray const &))
       98    ??4UnboundScript@v8@@QAEAAV01@ABV01@@Z (public: class v8::UnboundScript & __thiscall v8::UnboundScript::operator=(class v8::UnboundScript const &))
       99    ??4Unlocker@v8@@QAEAAV01@ABV01@@Z (public: class v8::Unlocker & __thiscall v8::Unlocker::operator=(class v8::Unlocker const &))
      100    ??4V8@v8@@QAEAAV01@ABV01@@Z (public: class v8::V8 & __thiscall v8::V8::operator=(class v8::V8 const &))
      101    ??4Value@v8@@QAEAAV01@ABV01@@Z (public: class v8::Value & __thiscall v8::Value::operator=(class v8::Value const &))
      102    ??DUtf8Value@String@v8@@QAEPADXZ (public: char * __thiscall v8::String::Utf8Value::operator*(void))
      103    ??DUtf8Value@String@v8@@QBEPBDXZ (public: char const * __thiscall v8::String::Utf8Value::operator*(void)const )
      104    ??DValue@String@v8@@QAEPAGXZ (public: unsigned short * __thiscall v8::String::Value::operator*(void))
      105    ??DValue@String@v8@@QBEPBGXZ (public: unsigned short const * __thiscall v8::String::Value::operator*(void)const )
      106    ??_7Allocator@ArrayBuffer@v8@@6B@ (const v8::ArrayBuffer::Allocator::`vftable')
      107    ??_7Extension@v8@@6B@ (const v8::Extension::`vftable')
      108    ??_7ExternalOneByteStringResource@String@v8@@6B@ (const v8::String::ExternalOneByteStringResource::`vftable')
      109    ??_7ExternalOneByteStringResourceImpl@v8@@6B@ (const v8::ExternalOneByteStringResourceImpl::`vftable')
      110    ??_7ExternalResourceVisitor@v8@@6B@ (const v8::ExternalResourceVisitor::`vftable')
      111    ??_7ExternalSourceStream@ScriptCompiler@v8@@6B@ (const v8::ScriptCompiler::ExternalSourceStream::`vftable')
      112    ??_7ExternalStringResource@String@v8@@6B@ (const v8::String::ExternalStringResource::`vftable')
      113    ??_7ExternalStringResourceBase@String@v8@@6B@ (const v8::String::ExternalStringResourceBase::`vftable')
      114    ??_7PersistentHandleVisitor@v8@@6B@ (const v8::PersistentHandleVisitor::`vftable')
      115    ?AddMemoryAllocationCallback@V8@v8@@SAXP6AXW4ObjectSpace@2@W4AllocationAction@2@H@Z01@Z (public: static void __cdecl v8::V8::AddMemoryAllocationCallback(void (__cdecl*)(enum v8::ObjectSpace,enum v8::AllocationAction,int),enum v8::ObjectSpace,enum v8::AllocationAction))
      116    ?AddMessageListener@V8@v8@@SA_NP6AXV?$Local@VMessage@v8@@@2@V?$Local@VValue@v8@@@2@@Z1@Z (public: static bool __cdecl v8::V8::AddMessageListener(void (__cdecl*)(class v8::Local<class v8::Message>,class v8::Local<class v8::Value>),class v8::Local<class v8::Value>))
      117    ?AdjustAmountOfExternalAllocatedMemory@Isolate@v8@@QAE_J_J@Z (public: __int64 __thiscall v8::Isolate::AdjustAmountOfExternalAllocatedMemory(__int64))
      118    ?ByteLength@Contents@ArrayBuffer@v8@@QBEIXZ (public: unsigned int __thiscall v8::ArrayBuffer::Contents::ByteLength(void)const )
      119    ?ByteLength@Contents@SharedArrayBuffer@v8@@QBEIXZ (public: unsigned int __thiscall v8::SharedArrayBuffer::Contents::ByteLength(void)const )
      120    ?CancelTerminateExecution@V8@v8@@SAXPAVIsolate@2@@Z (public: static void __cdecl v8::V8::CancelTerminateExecution(class v8::Isolate *))
      121    ?Cast@Array@v8@@SAPAV12@PAVValue@2@@Z (public: static class v8::Array * __cdecl v8::Array::Cast(class v8::Value *))
      122    ?Cast@ArrayBuffer@v8@@SAPAV12@PAVValue@2@@Z (public: static class v8::ArrayBuffer * __cdecl v8::ArrayBuffer::Cast(class v8::Value *))
      123    ?Cast@ArrayBufferView@v8@@SAPAV12@PAVValue@2@@Z (public: static class v8::ArrayBufferView * __cdecl v8::ArrayBufferView::Cast(class v8::Value *))
      124    ?Cast@Boolean@v8@@SAPAV12@PAVValue@2@@Z (public: static class v8::Boolean * __cdecl v8::Boolean::Cast(class v8::Value *))
      125    ?Cast@BooleanObject@v8@@SAPAV12@PAVValue@2@@Z (public: static class v8::BooleanObject * __cdecl v8::BooleanObject::Cast(class v8::Value *))
      126    ?Cast@DataView@v8@@SAPAV12@PAVValue@2@@Z (public: static class v8::DataView * __cdecl v8::DataView::Cast(class v8::Value *))
      127    ?Cast@Date@v8@@SAPAV12@PAVValue@2@@Z (public: static class v8::Date * __cdecl v8::Date::Cast(class v8::Value *))
      128    ?Cast@External@v8@@SAPAV12@PAVValue@2@@Z (public: static class v8::External * __cdecl v8::External::Cast(class v8::Value *))
      129    ?Cast@Float32Array@v8@@SAPAV12@PAVValue@2@@Z (public: static class v8::Float32Array * __cdecl v8::Float32Array::Cast(class v8::Value *))
      130    ?Cast@Float64Array@v8@@SAPAV12@PAVValue@2@@Z (public: static class v8::Float64Array * __cdecl v8::Float64Array::Cast(class v8::Value *))
      131    ?Cast@Function@v8@@SAPAV12@PAVValue@2@@Z (public: static class v8::Function * __cdecl v8::Function::Cast(class v8::Value *))
      132    ?Cast@Int16Array@v8@@SAPAV12@PAVValue@2@@Z (public: static class v8::Int16Array * __cdecl v8::Int16Array::Cast(class v8::Value *))
      133    ?Cast@Int32@v8@@SAPAV12@PAVValue@2@@Z (public: static class v8::Int32 * __cdecl v8::Int32::Cast(class v8::Value *))
      134    ?Cast@Int32Array@v8@@SAPAV12@PAVValue@2@@Z (public: static class v8::Int32Array * __cdecl v8::Int32Array::Cast(class v8::Value *))
      135    ?Cast@Int8Array@v8@@SAPAV12@PAVValue@2@@Z (public: static class v8::Int8Array * __cdecl v8::Int8Array::Cast(class v8::Value *))
      136    ?Cast@Integer@v8@@SAPAV12@PAVValue@2@@Z (public: static class v8::Integer * __cdecl v8::Integer::Cast(class v8::Value *))
      137    ?Cast@Map@v8@@SAPAV12@PAVValue@2@@Z (public: static class v8::Map * __cdecl v8::Map::Cast(class v8::Value *))
      138    ?Cast@Name@v8@@SAPAV12@PAVValue@2@@Z (public: static class v8::Name * __cdecl v8::Name::Cast(class v8::Value *))
      139    ?Cast@Number@v8@@SAPAV12@PAVValue@2@@Z (public: static class v8::Number * __cdecl v8::Number::Cast(class v8::Value *))
      140    ?Cast@NumberObject@v8@@SAPAV12@PAVValue@2@@Z (public: static class v8::NumberObject * __cdecl v8::NumberObject::Cast(class v8::Value *))
      141    ?Cast@Object@v8@@SAPAV12@PAVValue@2@@Z (public: static class v8::Object * __cdecl v8::Object::Cast(class v8::Value *))
      142    ?Cast@Promise@v8@@SAPAV12@PAVValue@2@@Z (public: static class v8::Promise * __cdecl v8::Promise::Cast(class v8::Value *))
      143    ?Cast@RegExp@v8@@SAPAV12@PAVValue@2@@Z (public: static class v8::RegExp * __cdecl v8::RegExp::Cast(class v8::Value *))
      144    ?Cast@Resolver@Promise@v8@@SAPAV123@PAVValue@3@@Z (public: static class v8::Promise::Resolver * __cdecl v8::Promise::Resolver::Cast(class v8::Value *))
      145    ?Cast@Set@v8@@SAPAV12@PAVValue@2@@Z (public: static class v8::Set * __cdecl v8::Set::Cast(class v8::Value *))
      146    ?Cast@SharedArrayBuffer@v8@@SAPAV12@PAVValue@2@@Z (public: static class v8::SharedArrayBuffer * __cdecl v8::SharedArrayBuffer::Cast(class v8::Value *))
      147    ?Cast@String@v8@@SAPAV12@PAVValue@2@@Z (public: static class v8::String * __cdecl v8::String::Cast(class v8::Value *))
      148    ?Cast@StringObject@v8@@SAPAV12@PAVValue@2@@Z (public: static class v8::StringObject * __cdecl v8::StringObject::Cast(class v8::Value *))
      149    ?Cast@Symbol@v8@@SAPAV12@PAVValue@2@@Z (public: static class v8::Symbol * __cdecl v8::Symbol::Cast(class v8::Value *))
      150    ?Cast@SymbolObject@v8@@SAPAV12@PAVValue@2@@Z (public: static class v8::SymbolObject * __cdecl v8::SymbolObject::Cast(class v8::Value *))
      151    ?Cast@TypedArray@v8@@SAPAV12@PAVValue@2@@Z (public: static class v8::TypedArray * __cdecl v8::TypedArray::Cast(class v8::Value *))
      152    ?Cast@Uint16Array@v8@@SAPAV12@PAVValue@2@@Z (public: static class v8::Uint16Array * __cdecl v8::Uint16Array::Cast(class v8::Value *))
      153    ?Cast@Uint32@v8@@SAPAV12@PAVValue@2@@Z (public: static class v8::Uint32 * __cdecl v8::Uint32::Cast(class v8::Value *))
      154    ?Cast@Uint32Array@v8@@SAPAV12@PAVValue@2@@Z (public: static class v8::Uint32Array * __cdecl v8::Uint32Array::Cast(class v8::Value *))
      155    ?Cast@Uint8Array@v8@@SAPAV12@PAVValue@2@@Z (public: static class v8::Uint8Array * __cdecl v8::Uint8Array::Cast(class v8::Value *))
      156    ?Cast@Uint8ClampedArray@v8@@SAPAV12@PAVValue@2@@Z (public: static class v8::Uint8ClampedArray * __cdecl v8::Uint8ClampedArray::Cast(class v8::Value *))
      157    ?Data@Contents@ArrayBuffer@v8@@QBEPAXXZ (public: void * __thiscall v8::ArrayBuffer::Contents::Data(void)const )
      158    ?Data@Contents@SharedArrayBuffer@v8@@QBEPAXXZ (public: void * __thiscall v8::SharedArrayBuffer::Contents::Data(void)const )
      159    ?Dispose@ExternalStringResourceBase@String@v8@@MAEXXZ (protected: virtual void __thiscall v8::String::ExternalStringResourceBase::Dispose(void))
      160    ?Empty@String@v8@@SA?AV?$Local@VString@v8@@@2@PAVIsolate@2@@Z (public: static class v8::Local<class v8::String> __cdecl v8::String::Empty(class v8::Isolate *))
      161    ?GetAlignedPointerFromEmbedderData@Context@v8@@QAEPAXH@Z (public: void * __thiscall v8::Context::GetAlignedPointerFromEmbedderData(int))
      162    ?GetAlignedPointerFromInternalField@Object@v8@@QAEPAXH@Z (public: void * __thiscall v8::Object::GetAlignedPointerFromInternalField(int))
      163    ?GetAlignedPointerFromInternalField@Object@v8@@SAPAXABV?$PersistentBase@VObject@v8@@@2@H@Z (public: static void * __cdecl v8::Object::GetAlignedPointerFromInternalField(class v8::PersistentBase<class v8::Object> const &,int))
      164    ?GetData@Isolate@v8@@QAEPAXI@Z (public: void * __thiscall v8::Isolate::GetData(unsigned int))
      165    ?GetEmbedderData@Context@v8@@QAE?AV?$Local@VValue@v8@@@2@H@Z (public: class v8::Local<class v8::Value> __thiscall v8::Context::GetEmbedderData(int))
      166    ?GetExternalStringResource@String@v8@@QBEPAVExternalStringResource@12@XZ (public: class v8::String::ExternalStringResource * __thiscall v8::String::GetExternalStringResource(void)const )
      167    ?GetExternalStringResourceBase@String@v8@@QBEPAVExternalStringResourceBase@12@PAW4Encoding@12@@Z (public: class v8::String::ExternalStringResourceBase * __thiscall v8::String::GetExternalStringResourceBase(enum v8::String::Encoding *)const )
      168    ?GetId@Script@v8@@QAEHXZ (public: int __thiscall v8::Script::GetId(void))
      169    ?GetInternalField@Object@v8@@QAE?AV?$Local@VValue@v8@@@2@H@Z (public: class v8::Local<class v8::Value> __thiscall v8::Object::GetInternalField(int))
      170    ?GetIsolate@HandleScope@v8@@QBEPAVIsolate@2@XZ (public: class v8::Isolate * __thiscall v8::HandleScope::GetIsolate(void)const )
      171    ?GetNativeFunctionTemplate@Extension@v8@@UAE?AV?$Local@VFunctionTemplate@v8@@@2@PAVIsolate@2@V?$Local@VString@v8@@@2@@Z (public: virtual class v8::Local<class v8::FunctionTemplate> __thiscall v8::Extension::GetNativeFunctionTemplate(class v8::Isolate *,class v8::Local<class v8::String>))
      172    ?GetNumberOfDataSlots@Isolate@v8@@SAIXZ (public: static unsigned int __cdecl v8::Isolate::GetNumberOfDataSlots(void))
      173    ?InternalFieldCount@Object@v8@@SAHABV?$PersistentBase@VObject@v8@@@2@@Z (public: static int __cdecl v8::Object::InternalFieldCount(class v8::PersistentBase<class v8::Object> const &))
      174    ?IsDead@V8@v8@@SA_NXZ (public: static bool __cdecl v8::V8::IsDead(void))
      175    ?IsExecutionTerminating@V8@v8@@SA_NPAVIsolate@2@@Z (public: static bool __cdecl v8::V8::IsExecutionTerminating(class v8::Isolate *))
      176    ?IsNull@Value@v8@@QBE_NXZ (public: bool __thiscall v8::Value::IsNull(void)const )
      177    ?IsString@Value@v8@@QBE_NXZ (public: bool __thiscall v8::Value::IsString(void)const )
      178    ?IsUndefined@Value@v8@@QBE_NXZ (public: bool __thiscall v8::Value::IsUndefined(void)const )
      179    ?JSStackComparableAddress@TryCatch@v8@@SAPAXPAV12@@Z (public: static void * __cdecl v8::TryCatch::JSStackComparableAddress(class v8::TryCatch *))
      180    ?New@Boolean@v8@@SA?AV?$Local@VBoolean@v8@@@2@PAVIsolate@2@_N@Z (public: static class v8::Local<class v8::Boolean> __cdecl v8::Boolean::New(class v8::Isolate *,bool))
      181    ?NewInstance@Function@v8@@QBE?AV?$MaybeLocal@VObject@v8@@@2@V?$Local@VContext@v8@@@2@@Z (public: class v8::MaybeLocal<class v8::Object> __thiscall v8::Function::NewInstance(class v8::Local<class v8::Context>)const )
      182    ?QuickIsNull@Value@v8@@ABE_NXZ (private: bool __thiscall v8::Value::QuickIsNull(void)const )
      183    ?QuickIsString@Value@v8@@ABE_NXZ (private: bool __thiscall v8::Value::QuickIsString(void)const )
      184    ?QuickIsUndefined@Value@v8@@ABE_NXZ (private: bool __thiscall v8::Value::QuickIsUndefined(void)const )
      185    ?RemoveGCEpilogueCallback@V8@v8@@SAXP6AXW4GCType@2@W4GCCallbackFlags@2@@Z@Z (public: static void __cdecl v8::V8::RemoveGCEpilogueCallback(void (__cdecl*)(enum v8::GCType,enum v8::GCCallbackFlags)))
      186    ?RemoveGCPrologueCallback@V8@v8@@SAXP6AXW4GCType@2@W4GCCallbackFlags@2@@Z@Z (public: static void __cdecl v8::V8::RemoveGCPrologueCallback(void (__cdecl*)(enum v8::GCType,enum v8::GCCallbackFlags)))
      187    ?RemoveMemoryAllocationCallback@V8@v8@@SAXP6AXW4ObjectSpace@2@W4AllocationAction@2@H@Z@Z (public: static void __cdecl v8::V8::RemoveMemoryAllocationCallback(void (__cdecl*)(enum v8::ObjectSpace,enum v8::AllocationAction,int)))
      188    ?RemoveMessageListeners@V8@v8@@SAXP6AXV?$Local@VMessage@v8@@@2@V?$Local@VValue@v8@@@2@@Z@Z (public: static void __cdecl v8::V8::RemoveMessageListeners(void (__cdecl*)(class v8::Local<class v8::Message>,class v8::Local<class v8::Value>)))
      189    ?Set@Template@v8@@QAEXPAVIsolate@2@PBDV?$Local@VData@v8@@@2@@Z (public: void __thiscall v8::Template::Set(class v8::Isolate *,char const *,class v8::Local<class v8::Data>))
      190    ?SetAllowCodeGenerationFromStringsCallback@V8@v8@@SAXP6A_NV?$Local@VContext@v8@@@2@@Z@Z (public: static void __cdecl v8::V8::SetAllowCodeGenerationFromStringsCallback(bool (__cdecl*)(class v8::Local<class v8::Context>)))
      191    ?SetCaptureStackTraceForUncaughtExceptions@V8@v8@@SAX_NHW4StackTraceOptions@StackTrace@2@@Z (public: static void __cdecl v8::V8::SetCaptureStackTraceForUncaughtExceptions(bool,int,enum v8::StackTrace::StackTraceOptions))
      192    ?SetData@Isolate@v8@@QAEXIPAX@Z (public: void __thiscall v8::Isolate::SetData(unsigned int,void *))
      193    ?SetFailedAccessCheckCallbackFunction@V8@v8@@SAXP6AXV?$Local@VObject@v8@@@2@W4AccessType@2@V?$Local@VValue@v8@@@2@@Z@Z (public: static void __cdecl v8::V8::SetFailedAccessCheckCallbackFunction(void (__cdecl*)(class v8::Local<class v8::Object>,enum v8::AccessType,class v8::Local<class v8::Value>)))
      194    ?SetFatalErrorHandler@V8@v8@@SAXP6AXPBD0@Z@Z (public: static void __cdecl v8::V8::SetFatalErrorHandler(void (__cdecl*)(char const *,char const *)))
      195    ?SetIndexedPropertyHandler@ObjectTemplate@v8@@QAEXP6AXIABV?$PropertyCallbackInfo@VValue@v8@@@2@@ZP6AXIV?$Local@VValue@v8@@@2@0@ZP6AXIABV?$PropertyCallbackInfo@VInteger@v8@@@2@@ZP6AXIABV?$PropertyCallbackInfo@VBoolean@v8@@@2@@ZP6AXABV?$PropertyCallbackInfo@VArray@v8@@@2@@Z2@Z (public: void __thiscall v8::ObjectTemplate::SetIndexedPropertyHandler(void (__cdecl*)(unsigned int,class v8::PropertyCallbackInfo<class v8::Value> const &),void (__cdecl*)(unsigned int,class v8::Local<class v8::Value>,class v8::PropertyCallbackInfo<class v8::Value> const &),void (__cdecl*)(unsigned int,class v8::PropertyCallbackInfo<class v8::Integer> const &),void (__cdecl*)(unsigned int,class v8::PropertyCallbackInfo<class v8::Boolean> const &),void (__cdecl*)(class v8::PropertyCallbackInfo<class v8::Array> const &),class v8::Local<class v8::Value>))
      196    ?TerminateExecution@V8@v8@@SAXPAVIsolate@2@@Z (public: static void __cdecl v8::V8::TerminateExecution(class v8::Isolate *))
      197    ?ToBoolean@Value@v8@@QBE?AV?$Local@VBoolean@v8@@@2@XZ (public: class v8::Local<class v8::Boolean> __thiscall v8::Value::ToBoolean(void)const )
      198    ?ToDetailString@Value@v8@@QBE?AV?$Local@VString@v8@@@2@XZ (public: class v8::Local<class v8::String> __thiscall v8::Value::ToDetailString(void)const )
      199    ?ToInt32@Value@v8@@QBE?AV?$Local@VInt32@v8@@@2@XZ (public: class v8::Local<class v8::Int32> __thiscall v8::Value::ToInt32(void)const )
      200    ?ToInteger@Value@v8@@QBE?AV?$Local@VInteger@v8@@@2@XZ (public: class v8::Local<class v8::Integer> __thiscall v8::Value::ToInteger(void)const )
      201    ?ToNumber@Value@v8@@QBE?AV?$Local@VNumber@v8@@@2@XZ (public: class v8::Local<class v8::Number> __thiscall v8::Value::ToNumber(void)const )
      202    ?ToObject@Value@v8@@QBE?AV?$Local@VObject@v8@@@2@XZ (public: class v8::Local<class v8::Object> __thiscall v8::Value::ToObject(void)const )
      203    ?ToString@Value@v8@@QBE?AV?$Local@VString@v8@@@2@XZ (public: class v8::Local<class v8::String> __thiscall v8::Value::ToString(void)const )
      204    ?ToUint32@Value@v8@@QBE?AV?$Local@VUint32@v8@@@2@XZ (public: class v8::Local<class v8::Uint32> __thiscall v8::Value::ToUint32(void)const )
      205    ?VisitExternalResources@V8@v8@@SAXPAVExternalResourceVisitor@2@@Z (public: static void __cdecl v8::V8::VisitExternalResources(class v8::ExternalResourceVisitor *))
      206    ?VisitExternalString@ExternalResourceVisitor@v8@@UAEXV?$Local@VString@v8@@@2@@Z (public: virtual void __thiscall v8::ExternalResourceVisitor::VisitExternalString(class v8::Local<class v8::String>))
      207    ?VisitHandlesForPartialDependence@V8@v8@@SAXPAVIsolate@2@PAVPersistentHandleVisitor@2@@Z (public: static void __cdecl v8::V8::VisitHandlesForPartialDependence(class v8::Isolate *,class v8::PersistentHandleVisitor *))
      208    ?VisitHandlesWithClassIds@V8@v8@@SAXPAVIsolate@2@PAVPersistentHandleVisitor@2@@Z (public: static void __cdecl v8::V8::VisitHandlesWithClassIds(class v8::Isolate *,class v8::PersistentHandleVisitor *))
      209    ?VisitHandlesWithClassIds@V8@v8@@SAXPAVPersistentHandleVisitor@2@@Z (public: static void __cdecl v8::V8::VisitHandlesWithClassIds(class v8::PersistentHandleVisitor *))
      210    ?VisitPersistentHandle@PersistentHandleVisitor@v8@@UAEXPAV?$Persistent@VValue@v8@@V?$NonCopyablePersistentTraits@VValue@v8@@@2@@2@G@Z (public: virtual void __thiscall v8::PersistentHandleVisitor::VisitPersistentHandle(class v8::Persistent<class v8::Value,class v8::NonCopyablePersistentTraits<class v8::Value> > *,unsigned short))
      211    ?auto_enable@Extension@v8@@QAE_NXZ (public: bool __thiscall v8::Extension::auto_enable(void))
      212    ?begin@ExtensionConfiguration@v8@@QBEPAPBDXZ (public: char const * * __thiscall v8::ExtensionConfiguration::begin(void)const )
      213    ?code_range_size@ResourceConstraints@v8@@QBEIXZ (public: unsigned int __thiscall v8::ResourceConstraints::code_range_size(void)const )
      214    ?data@ExternalOneByteStringResourceImpl@v8@@UBEPBDXZ (public: virtual char const * __thiscall v8::ExternalOneByteStringResourceImpl::data(void)const )
      215    ?dependencies@Extension@v8@@QAEPAPBDXZ (public: char const * * __thiscall v8::Extension::dependencies(void))
      216    ?dependency_count@Extension@v8@@QAEHXZ (public: int __thiscall v8::Extension::dependency_count(void))
      217    ?end@ExtensionConfiguration@v8@@QBEPAPBDXZ (public: char const * * __thiscall v8::ExtensionConfiguration::end(void)const )
      218    ?heap_size_limit@HeapStatistics@v8@@QAEIXZ (public: unsigned int __thiscall v8::HeapStatistics::heap_size_limit(void))
      219    ?impl@StreamedSource@ScriptCompiler@v8@@QBEPAU1internal@3@XZ (public: struct v8::internal::StreamedSource * __thiscall v8::ScriptCompiler::StreamedSource::impl(void)const )
      220    ?kInternalFieldCount@ArrayBuffer@v8@@2HB (public: static int const v8::ArrayBuffer::kInternalFieldCount)
      221    ?kInternalFieldCount@ArrayBufferView@v8@@2HB (public: static int const v8::ArrayBufferView::kInternalFieldCount)
      222    ?kInternalFieldCount@SharedArrayBuffer@v8@@2HB (public: static int const v8::SharedArrayBuffer::kInternalFieldCount)
      223    ?kMaxLength@String@v8@@2HB (public: static int const v8::String::kMaxLength)
      224    ?kNoColumnInfo@Message@v8@@2HB (public: static int const v8::Message::kNoColumnInfo)
      225    ?kNoLineNumberInfo@Message@v8@@2HB (public: static int const v8::Message::kNoLineNumberInfo)
      226    ?kNoScriptId@UnboundScript@v8@@2HB (public: static int const v8::UnboundScript::kNoScriptId)
      227    ?kNoScriptIdInfo@Message@v8@@2HB (public: static int const v8::Message::kNoScriptIdInfo)
      228    ?length@ExternalOneByteStringResourceImpl@v8@@UBEIXZ (public: virtual unsigned int __thiscall v8::ExternalOneByteStringResourceImpl::length(void)const )
      229    ?length@Utf8Value@String@v8@@QBEHXZ (public: int __thiscall v8::String::Utf8Value::length(void)const )
      230    ?length@Value@String@v8@@QBEHXZ (public: int __thiscall v8::String::Value::length(void)const )
      231    ?max_available_threads@ResourceConstraints@v8@@QBEHXZ (public: int __thiscall v8::ResourceConstraints::max_available_threads(void)const )
      232    ?max_executable_size@ResourceConstraints@v8@@QBEHXZ (public: int __thiscall v8::ResourceConstraints::max_executable_size(void)const )
      233    ?max_old_space_size@ResourceConstraints@v8@@QBEHXZ (public: int __thiscall v8::ResourceConstraints::max_old_space_size(void)const )
      234    ?max_semi_space_size@ResourceConstraints@v8@@QBEHXZ (public: int __thiscall v8::ResourceConstraints::max_semi_space_size(void)const )
      235    ?name@Extension@v8@@QBEPBDXZ (public: char const * __thiscall v8::Extension::name(void)const )
      236    ?object_count@HeapObjectStatistics@v8@@QAEIXZ (public: unsigned int __thiscall v8::HeapObjectStatistics::object_count(void))
      237    ?object_size@HeapObjectStatistics@v8@@QAEIXZ (public: unsigned int __thiscall v8::HeapObjectStatistics::object_size(void))
      238    ?object_sub_type@HeapObjectStatistics@v8@@QAEPBDXZ (public: char const * __thiscall v8::HeapObjectStatistics::object_sub_type(void))
      239    ?object_type@HeapObjectStatistics@v8@@QAEPBDXZ (public: char const * __thiscall v8::HeapObjectStatistics::object_type(void))
      240    ?physical_space_size@HeapSpaceStatistics@v8@@QAEIXZ (public: unsigned int __thiscall v8::HeapSpaceStatistics::physical_space_size(void))
      241    ?set_auto_enable@Extension@v8@@QAEX_N@Z (public: void __thiscall v8::Extension::set_auto_enable(bool))
      242    ?set_code_range_size@ResourceConstraints@v8@@QAEXI@Z (public: void __thiscall v8::ResourceConstraints::set_code_range_size(unsigned int))
      243    ?set_max_available_threads@ResourceConstraints@v8@@QAEXH@Z (public: void __thiscall v8::ResourceConstraints::set_max_available_threads(int))
      244    ?set_max_executable_size@ResourceConstraints@v8@@QAEXH@Z (public: void __thiscall v8::ResourceConstraints::set_max_executable_size(int))
      245    ?set_max_old_space_size@ResourceConstraints@v8@@QAEXH@Z (public: void __thiscall v8::ResourceConstraints::set_max_old_space_size(int))
      246    ?set_max_semi_space_size@ResourceConstraints@v8@@QAEXH@Z (public: void __thiscall v8::ResourceConstraints::set_max_semi_space_size(int))
      247    ?set_stack_limit@ResourceConstraints@v8@@QAEXPAI@Z (public: void __thiscall v8::ResourceConstraints::set_stack_limit(unsigned int *))
      248    ?source@Extension@v8@@QBEPBVExternalOneByteStringResource@String@2@XZ (public: class v8::String::ExternalOneByteStringResource const * __thiscall v8::Extension::source(void)const )
      249    ?source_length@Extension@v8@@QBEIXZ (public: unsigned int __thiscall v8::Extension::source_length(void)const )
      250    ?space_available_size@HeapSpaceStatistics@v8@@QAEIXZ (public: unsigned int __thiscall v8::HeapSpaceStatistics::space_available_size(void))
      251    ?space_name@HeapSpaceStatistics@v8@@QAEPBDXZ (public: char const * __thiscall v8::HeapSpaceStatistics::space_name(void))
      252    ?space_size@HeapSpaceStatistics@v8@@QAEIXZ (public: unsigned int __thiscall v8::HeapSpaceStatistics::space_size(void))
      253    ?space_used_size@HeapSpaceStatistics@v8@@QAEIXZ (public: unsigned int __thiscall v8::HeapSpaceStatistics::space_used_size(void))
      254    ?stack_limit@ResourceConstraints@v8@@QBEPAIXZ (public: unsigned int * __thiscall v8::ResourceConstraints::stack_limit(void)const )
      255    ?total_available_size@HeapStatistics@v8@@QAEIXZ (public: unsigned int __thiscall v8::HeapStatistics::total_available_size(void))
      256    ?total_heap_size@HeapStatistics@v8@@QAEIXZ (public: unsigned int __thiscall v8::HeapStatistics::total_heap_size(void))
      257    ?total_heap_size_executable@HeapStatistics@v8@@QAEIXZ (public: unsigned int __thiscall v8::HeapStatistics::total_heap_size_executable(void))
      258    ?total_physical_size@HeapStatistics@v8@@QAEIXZ (public: unsigned int __thiscall v8::HeapStatistics::total_physical_size(void))
      259    ?used_heap_size@HeapStatistics@v8@@QAEIXZ (public: unsigned int __thiscall v8::HeapStatistics::used_heap_size(void))
      260    __register_bufferutil_
               exported name: _register_bufferutil_
